	.file	"main.cpp"
	.text
	.section	.text._ZNSt11char_traitsIcE6lengthEPKc,"axG",@progbits,_ZNSt11char_traitsIcE6lengthEPKc,comdat
	.weak	_ZNSt11char_traitsIcE6lengthEPKc
	.type	_ZNSt11char_traitsIcE6lengthEPKc, @function
_ZNSt11char_traitsIcE6lengthEPKc:
.LFB382:
	.cfi_startproc
	endbr64
	pushq	%rbp
	.cfi_def_cfa_offset 16
	.cfi_offset 6, -16
	movq	%rsp, %rbp
	.cfi_def_cfa_register 6
	subq	$32, %rsp
	movq	%rdi, -24(%rbp)
	movq	-24(%rbp), %rax
	movq	%rax, -8(%rbp)
	movl	$0, %eax
	testb	%al, %al
	je	.L3
	movq	-24(%rbp), %rax
	movq	%rax, %rdi
	call	_ZN9__gnu_cxx11char_traitsIcE6lengthEPKc
	jmp	.L4
.L3:
	movq	-24(%rbp), %rax
	movq	%rax, %rdi
	call	strlen@PLT
	nop
.L4:
	leave
	.cfi_def_cfa 7, 8
	ret
	.cfi_endproc
.LFE382:
	.size	_ZNSt11char_traitsIcE6lengthEPKc, .-_ZNSt11char_traitsIcE6lengthEPKc
	.section	.text._ZnwmPv,"axG",@progbits,_ZnwmPv,comdat
	.weak	_ZnwmPv
	.type	_ZnwmPv, @function
_ZnwmPv:
.LFB446:
	.cfi_startproc
	endbr64
	pushq	%rbp
	.cfi_def_cfa_offset 16
	.cfi_offset 6, -16
	movq	%rsp, %rbp
	.cfi_def_cfa_register 6
	movq	%rdi, -8(%rbp)
	movq	%rsi, -16(%rbp)
	movq	-16(%rbp), %rax
	popq	%rbp
	.cfi_def_cfa 7, 8
	ret
	.cfi_endproc
.LFE446:
	.size	_ZnwmPv, .-_ZnwmPv
	.section	.text._ZdlPvS_,"axG",@progbits,_ZdlPvS_,comdat
	.weak	_ZdlPvS_
	.type	_ZdlPvS_, @function
_ZdlPvS_:
.LFB448:
	.cfi_startproc
	endbr64
	pushq	%rbp
	.cfi_def_cfa_offset 16
	.cfi_offset 6, -16
	movq	%rsp, %rbp
	.cfi_def_cfa_register 6
	movq	%rdi, -8(%rbp)
	movq	%rsi, -16(%rbp)
	nop
	popq	%rbp
	.cfi_def_cfa 7, 8
	ret
	.cfi_endproc
.LFE448:
	.size	_ZdlPvS_, .-_ZdlPvS_
	.section	.text._ZNSt7__cxx119to_stringEi,"axG",@progbits,_ZNSt7__cxx119to_stringEi,comdat
	.weak	_ZNSt7__cxx119to_stringEi
	.type	_ZNSt7__cxx119to_stringEi, @function
_ZNSt7__cxx119to_stringEi:
.LFB1087:
	.cfi_startproc
	.cfi_personality 0x9b,DW.ref.__gxx_personality_v0
	.cfi_lsda 0x1b,.LLSDA1087
	endbr64
	pushq	%rbp
	.cfi_def_cfa_offset 16
	.cfi_offset 6, -16
	movq	%rsp, %rbp
	.cfi_def_cfa_register 6
	pushq	%rbx
	subq	$56, %rsp
	.cfi_offset 3, -24
	movq	%rdi, -56(%rbp)
	movl	%esi, -60(%rbp)
	movq	%fs:40, %rax
	movq	%rax, -24(%rbp)
	xorl	%eax, %eax
	movl	-60(%rbp), %eax
	shrl	$31, %eax
	movb	%al, -33(%rbp)
	cmpb	$0, -33(%rbp)
	je	.L9
	movl	-60(%rbp), %eax
	negl	%eax
	jmp	.L10
.L9:
	movl	-60(%rbp), %eax
.L10:
	movl	%eax, -32(%rbp)
	movl	-32(%rbp), %eax
	movl	$10, %esi
	movl	%eax, %edi
	call	_ZNSt8__detail14__to_chars_lenIjEEjT_i
	movl	%eax, -28(%rbp)
	leaq	-34(%rbp), %rax
	movq	%rax, %rdi
	call	_ZNSaIcEC1Ev@PLT
	movzbl	-33(%rbp), %edx
	movl	-28(%rbp), %eax
	addl	%edx, %eax
	movl	%eax, %esi
	leaq	-34(%rbp), %rdx
	movq	-56(%rbp), %rax
	movq	%rdx, %rcx
	movl	$45, %edx
	movq	%rax, %rdi
.LEHB0:
	call	_ZNSt7__cxx1112basic_stringIcSt11char_traitsIcESaIcEEC1IS3_EEmcRKS3_
.LEHE0:
	leaq	-34(%rbp), %rax
	movq	%rax, %rdi
	call	_ZNSaIcED1Ev@PLT
	movzbl	-33(%rbp), %edx
	movq	-56(%rbp), %rax
	movq	%rdx, %rsi
	movq	%rax, %rdi
.LEHB1:
	call	_ZNSt7__cxx1112basic_stringIcSt11char_traitsIcESaIcEEixEm@PLT
.LEHE1:
	movq	%rax, %rcx
	movl	-32(%rbp), %edx
	movl	-28(%rbp), %eax
	movl	%eax, %esi
	movq	%rcx, %rdi
	call	_ZNSt8__detail18__to_chars_10_implIjEEvPcjT_
	nop
	movq	-24(%rbp), %rax
	subq	%fs:40, %rax
	je	.L14
	jmp	.L17
.L15:
	endbr64
	movq	%rax, %rbx
	leaq	-34(%rbp), %rax
	movq	%rax, %rdi
	call	_ZNSaIcED1Ev@PLT
	movq	%rbx, %rax
	movq	%rax, %rdi
.LEHB2:
	call	_Unwind_Resume@PLT
.L16:
	endbr64
	movq	%rax, %rbx
	movq	-56(%rbp), %rax
	movq	%rax, %rdi
	call	_ZNSt7__cxx1112basic_stringIcSt11char_traitsIcESaIcEED1Ev@PLT
	movq	%rbx, %rax
	movq	%rax, %rdi
	call	_Unwind_Resume@PLT
.LEHE2:
.L17:
	call	__stack_chk_fail@PLT
.L14:
	movq	-56(%rbp), %rax
	movq	-8(%rbp), %rbx
	leave
	.cfi_def_cfa 7, 8
	ret
	.cfi_endproc
.LFE1087:
	.globl	__gxx_personality_v0
	.section	.gcc_except_table._ZNSt7__cxx119to_stringEi,"aG",@progbits,_ZNSt7__cxx119to_stringEi,comdat
.LLSDA1087:
	.byte	0xff
	.byte	0xff
	.byte	0x1
	.uleb128 .LLSDACSE1087-.LLSDACSB1087
.LLSDACSB1087:
	.uleb128 .LEHB0-.LFB1087
	.uleb128 .LEHE0-.LEHB0
	.uleb128 .L15-.LFB1087
	.uleb128 0
	.uleb128 .LEHB1-.LFB1087
	.uleb128 .LEHE1-.LEHB1
	.uleb128 .L16-.LFB1087
	.uleb128 0
	.uleb128 .LEHB2-.LFB1087
	.uleb128 .LEHE2-.LEHB2
	.uleb128 0
	.uleb128 0
.LLSDACSE1087:
	.section	.text._ZNSt7__cxx119to_stringEi,"axG",@progbits,_ZNSt7__cxx119to_stringEi,comdat
	.size	_ZNSt7__cxx119to_stringEi, .-_ZNSt7__cxx119to_stringEi
	.section	.text._ZNSt8__detail14__to_chars_lenIjEEjT_i,"axG",@progbits,_ZNSt8__detail14__to_chars_lenIjEEjT_i,comdat
	.weak	_ZNSt8__detail14__to_chars_lenIjEEjT_i
	.type	_ZNSt8__detail14__to_chars_lenIjEEjT_i, @function
_ZNSt8__detail14__to_chars_lenIjEEjT_i:
.LFB1089:
	.cfi_startproc
	endbr64
	pushq	%rbp
	.cfi_def_cfa_offset 16
	.cfi_offset 6, -16
	movq	%rsp, %rbp
	.cfi_def_cfa_register 6
	movl	%edi, -36(%rbp)
	movl	%esi, -40(%rbp)
	movl	$1, -20(%rbp)
	movl	-40(%rbp), %eax
	imull	%eax, %eax
	movl	%eax, -16(%rbp)
	movl	-40(%rbp), %eax
	movl	-16(%rbp), %edx
	imull	%edx, %eax
	movl	%eax, -12(%rbp)
	movl	-40(%rbp), %eax
	imull	-12(%rbp), %eax
	movl	%eax, %eax
	movq	%rax, -8(%rbp)
.L24:
	movl	-40(%rbp), %eax
	cmpl	%eax, -36(%rbp)
	jnb	.L19
	movl	-20(%rbp), %eax
	jmp	.L20
.L19:
	movl	-36(%rbp), %eax
	cmpl	-16(%rbp), %eax
	jnb	.L21
	movl	-20(%rbp), %eax
	addl	$1, %eax
	jmp	.L20
.L21:
	movl	-36(%rbp), %eax
	cmpl	-12(%rbp), %eax
	jnb	.L22
	movl	-20(%rbp), %eax
	addl	$2, %eax
	jmp	.L20
.L22:
	movl	-36(%rbp), %eax
	cmpq	%rax, -8(%rbp)
	jbe	.L23
	movl	-20(%rbp), %eax
	addl	$3, %eax
	jmp	.L20
.L23:
	movl	-36(%rbp), %eax
	movl	$0, %edx
	divq	-8(%rbp)
	movl	%eax, -36(%rbp)
	addl	$4, -20(%rbp)
	jmp	.L24
.L20:
	popq	%rbp
	.cfi_def_cfa 7, 8
	ret
	.cfi_endproc
.LFE1089:
	.size	_ZNSt8__detail14__to_chars_lenIjEEjT_i, .-_ZNSt8__detail14__to_chars_lenIjEEjT_i
	.section	.rodata
	.align 4
	.type	_ZN9__gnu_cxxL21__default_lock_policyE, @object
	.size	_ZN9__gnu_cxxL21__default_lock_policyE, 4
_ZN9__gnu_cxxL21__default_lock_policyE:
	.long	2
	.type	_ZN6__pstl9execution2v1L3seqE, @object
	.size	_ZN6__pstl9execution2v1L3seqE, 1
_ZN6__pstl9execution2v1L3seqE:
	.zero	1
	.type	_ZN6__pstl9execution2v1L3parE, @object
	.size	_ZN6__pstl9execution2v1L3parE, 1
_ZN6__pstl9execution2v1L3parE:
	.zero	1
	.type	_ZN6__pstl9execution2v1L9par_unseqE, @object
	.size	_ZN6__pstl9execution2v1L9par_unseqE, 1
_ZN6__pstl9execution2v1L9par_unseqE:
	.zero	1
	.type	_ZN6__pstl9execution2v1L5unseqE, @object
	.size	_ZN6__pstl9execution2v1L5unseqE, 1
_ZN6__pstl9execution2v1L5unseqE:
	.zero	1
	.align 4
	.type	_ZN7libsumoL13TRACI_VERSIONE, @object
	.size	_ZN7libsumoL13TRACI_VERSIONE, 4
_ZN7libsumoL13TRACI_VERSIONE:
	.long	21
	.align 4
	.type	_ZN7libsumoL14CMD_GETVERSIONE, @object
	.size	_ZN7libsumoL14CMD_GETVERSIONE, 4
_ZN7libsumoL14CMD_GETVERSIONE:
	.zero	4
	.align 4
	.type	_ZN7libsumoL8CMD_LOADE, @object
	.size	_ZN7libsumoL8CMD_LOADE, 4
_ZN7libsumoL8CMD_LOADE:
	.long	1
	.align 4
	.type	_ZN7libsumoL15CMD_EXECUTEMOVEE, @object
	.size	_ZN7libsumoL15CMD_EXECUTEMOVEE, 4
_ZN7libsumoL15CMD_EXECUTEMOVEE:
	.long	125
	.align 4
	.type	_ZN7libsumoL11CMD_SIMSTEPE, @object
	.size	_ZN7libsumoL11CMD_SIMSTEPE, 4
_ZN7libsumoL11CMD_SIMSTEPE:
	.long	2
	.align 4
	.type	_ZN7libsumoL12CMD_SETORDERE, @object
	.size	_ZN7libsumoL12CMD_SETORDERE, 4
_ZN7libsumoL12CMD_SETORDERE:
	.long	3
	.align 4
	.type	_ZN7libsumoL8CMD_STOPE, @object
	.size	_ZN7libsumoL8CMD_STOPE, 4
_ZN7libsumoL8CMD_STOPE:
	.long	18
	.align 4
	.type	_ZN7libsumoL22CMD_REROUTE_TO_PARKINGE, @object
	.size	_ZN7libsumoL22CMD_REROUTE_TO_PARKINGE, 4
_ZN7libsumoL22CMD_REROUTE_TO_PARKINGE:
	.long	194
	.align 4
	.type	_ZN7libsumoL10CMD_RESUMEE, @object
	.size	_ZN7libsumoL10CMD_RESUMEE, 4
_ZN7libsumoL10CMD_RESUMEE:
	.long	25
	.align 4
	.type	_ZN7libsumoL14CMD_CHANGELANEE, @object
	.size	_ZN7libsumoL14CMD_CHANGELANEE, 4
_ZN7libsumoL14CMD_CHANGELANEE:
	.long	19
	.align 4
	.type	_ZN7libsumoL12CMD_SLOWDOWNE, @object
	.size	_ZN7libsumoL12CMD_SLOWDOWNE, 4
_ZN7libsumoL12CMD_SLOWDOWNE:
	.long	20
	.align 4
	.type	_ZN7libsumoL17CMD_CHANGESUBLANEE, @object
	.size	_ZN7libsumoL17CMD_CHANGESUBLANEE, 4
_ZN7libsumoL17CMD_CHANGESUBLANEE:
	.long	21
	.align 4
	.type	_ZN7libsumoL11CMD_OPENGAPE, @object
	.size	_ZN7libsumoL11CMD_OPENGAPE, 4
_ZN7libsumoL11CMD_OPENGAPE:
	.long	22
	.align 4
	.type	_ZN7libsumoL16CMD_REPLACE_STOPE, @object
	.size	_ZN7libsumoL16CMD_REPLACE_STOPE, 4
_ZN7libsumoL16CMD_REPLACE_STOPE:
	.long	23
	.align 4
	.type	_ZN7libsumoL15CMD_INSERT_STOPE, @object
	.size	_ZN7libsumoL15CMD_INSERT_STOPE, 4
_ZN7libsumoL15CMD_INSERT_STOPE:
	.long	24
	.align 4
	.type	_ZN7libsumoL14VAR_TAXI_FLEETE, @object
	.size	_ZN7libsumoL14VAR_TAXI_FLEETE, 4
_ZN7libsumoL14VAR_TAXI_FLEETE:
	.long	32
	.align 4
	.type	_ZN7libsumoL17CMD_TAXI_DISPATCHE, @object
	.size	_ZN7libsumoL17CMD_TAXI_DISPATCHE, 4
_ZN7libsumoL17CMD_TAXI_DISPATCHE:
	.long	33
	.align 4
	.type	_ZN7libsumoL16CMD_CHANGETARGETE, @object
	.size	_ZN7libsumoL16CMD_CHANGETARGETE, 4
_ZN7libsumoL16CMD_CHANGETARGETE:
	.long	49
	.align 4
	.type	_ZN7libsumoL9CMD_CLOSEE, @object
	.size	_ZN7libsumoL9CMD_CLOSEE, 4
_ZN7libsumoL9CMD_CLOSEE:
	.long	127
	.align 4
	.type	_ZN7libsumoL27CMD_ADD_SUBSCRIPTION_FILTERE, @object
	.size	_ZN7libsumoL27CMD_ADD_SUBSCRIPTION_FILTERE, 4
_ZN7libsumoL27CMD_ADD_SUBSCRIPTION_FILTERE:
	.long	126
	.align 4
	.type	_ZN7libsumoL35CMD_SUBSCRIBE_INDUCTIONLOOP_CONTEXTE, @object
	.size	_ZN7libsumoL35CMD_SUBSCRIBE_INDUCTIONLOOP_CONTEXTE, 4
_ZN7libsumoL35CMD_SUBSCRIBE_INDUCTIONLOOP_CONTEXTE:
	.long	128
	.align 4
	.type	_ZN7libsumoL40RESPONSE_SUBSCRIBE_INDUCTIONLOOP_CONTEXTE, @object
	.size	_ZN7libsumoL40RESPONSE_SUBSCRIBE_INDUCTIONLOOP_CONTEXTE, 4
_ZN7libsumoL40RESPONSE_SUBSCRIBE_INDUCTIONLOOP_CONTEXTE:
	.long	144
	.align 4
	.type	_ZN7libsumoL30CMD_GET_INDUCTIONLOOP_VARIABLEE, @object
	.size	_ZN7libsumoL30CMD_GET_INDUCTIONLOOP_VARIABLEE, 4
_ZN7libsumoL30CMD_GET_INDUCTIONLOOP_VARIABLEE:
	.long	160
	.align 4
	.type	_ZN7libsumoL35RESPONSE_GET_INDUCTIONLOOP_VARIABLEE, @object
	.size	_ZN7libsumoL35RESPONSE_GET_INDUCTIONLOOP_VARIABLEE, 4
_ZN7libsumoL35RESPONSE_GET_INDUCTIONLOOP_VARIABLEE:
	.long	176
	.align 4
	.type	_ZN7libsumoL30CMD_SET_INDUCTIONLOOP_VARIABLEE, @object
	.size	_ZN7libsumoL30CMD_SET_INDUCTIONLOOP_VARIABLEE, 4
_ZN7libsumoL30CMD_SET_INDUCTIONLOOP_VARIABLEE:
	.long	192
	.align 4
	.type	_ZN7libsumoL36CMD_SUBSCRIBE_INDUCTIONLOOP_VARIABLEE, @object
	.size	_ZN7libsumoL36CMD_SUBSCRIBE_INDUCTIONLOOP_VARIABLEE, 4
_ZN7libsumoL36CMD_SUBSCRIBE_INDUCTIONLOOP_VARIABLEE:
	.long	208
	.align 4
	.type	_ZN7libsumoL41RESPONSE_SUBSCRIBE_INDUCTIONLOOP_VARIABLEE, @object
	.size	_ZN7libsumoL41RESPONSE_SUBSCRIBE_INDUCTIONLOOP_VARIABLEE, 4
_ZN7libsumoL41RESPONSE_SUBSCRIBE_INDUCTIONLOOP_VARIABLEE:
	.long	224
	.align 4
	.type	_ZN7libsumoL36CMD_SUBSCRIBE_MULTIENTRYEXIT_CONTEXTE, @object
	.size	_ZN7libsumoL36CMD_SUBSCRIBE_MULTIENTRYEXIT_CONTEXTE, 4
_ZN7libsumoL36CMD_SUBSCRIBE_MULTIENTRYEXIT_CONTEXTE:
	.long	129
	.align 4
	.type	_ZN7libsumoL41RESPONSE_SUBSCRIBE_MULTIENTRYEXIT_CONTEXTE, @object
	.size	_ZN7libsumoL41RESPONSE_SUBSCRIBE_MULTIENTRYEXIT_CONTEXTE, 4
_ZN7libsumoL41RESPONSE_SUBSCRIBE_MULTIENTRYEXIT_CONTEXTE:
	.long	145
	.align 4
	.type	_ZN7libsumoL31CMD_GET_MULTIENTRYEXIT_VARIABLEE, @object
	.size	_ZN7libsumoL31CMD_GET_MULTIENTRYEXIT_VARIABLEE, 4
_ZN7libsumoL31CMD_GET_MULTIENTRYEXIT_VARIABLEE:
	.long	161
	.align 4
	.type	_ZN7libsumoL36RESPONSE_GET_MULTIENTRYEXIT_VARIABLEE, @object
	.size	_ZN7libsumoL36RESPONSE_GET_MULTIENTRYEXIT_VARIABLEE, 4
_ZN7libsumoL36RESPONSE_GET_MULTIENTRYEXIT_VARIABLEE:
	.long	177
	.align 4
	.type	_ZN7libsumoL31CMD_SET_MULTIENTRYEXIT_VARIABLEE, @object
	.size	_ZN7libsumoL31CMD_SET_MULTIENTRYEXIT_VARIABLEE, 4
_ZN7libsumoL31CMD_SET_MULTIENTRYEXIT_VARIABLEE:
	.long	193
	.align 4
	.type	_ZN7libsumoL37CMD_SUBSCRIBE_MULTIENTRYEXIT_VARIABLEE, @object
	.size	_ZN7libsumoL37CMD_SUBSCRIBE_MULTIENTRYEXIT_VARIABLEE, 4
_ZN7libsumoL37CMD_SUBSCRIBE_MULTIENTRYEXIT_VARIABLEE:
	.long	209
	.align 4
	.type	_ZN7libsumoL42RESPONSE_SUBSCRIBE_MULTIENTRYEXIT_VARIABLEE, @object
	.size	_ZN7libsumoL42RESPONSE_SUBSCRIBE_MULTIENTRYEXIT_VARIABLEE, 4
_ZN7libsumoL42RESPONSE_SUBSCRIBE_MULTIENTRYEXIT_VARIABLEE:
	.long	225
	.align 4
	.type	_ZN7libsumoL24CMD_SUBSCRIBE_TL_CONTEXTE, @object
	.size	_ZN7libsumoL24CMD_SUBSCRIBE_TL_CONTEXTE, 4
_ZN7libsumoL24CMD_SUBSCRIBE_TL_CONTEXTE:
	.long	130
	.align 4
	.type	_ZN7libsumoL29RESPONSE_SUBSCRIBE_TL_CONTEXTE, @object
	.size	_ZN7libsumoL29RESPONSE_SUBSCRIBE_TL_CONTEXTE, 4
_ZN7libsumoL29RESPONSE_SUBSCRIBE_TL_CONTEXTE:
	.long	146
	.align 4
	.type	_ZN7libsumoL19CMD_GET_TL_VARIABLEE, @object
	.size	_ZN7libsumoL19CMD_GET_TL_VARIABLEE, 4
_ZN7libsumoL19CMD_GET_TL_VARIABLEE:
	.long	162
	.align 4
	.type	_ZN7libsumoL24RESPONSE_GET_TL_VARIABLEE, @object
	.size	_ZN7libsumoL24RESPONSE_GET_TL_VARIABLEE, 4
_ZN7libsumoL24RESPONSE_GET_TL_VARIABLEE:
	.long	178
	.align 4
	.type	_ZN7libsumoL19CMD_SET_TL_VARIABLEE, @object
	.size	_ZN7libsumoL19CMD_SET_TL_VARIABLEE, 4
_ZN7libsumoL19CMD_SET_TL_VARIABLEE:
	.long	194
	.align 4
	.type	_ZN7libsumoL25CMD_SUBSCRIBE_TL_VARIABLEE, @object
	.size	_ZN7libsumoL25CMD_SUBSCRIBE_TL_VARIABLEE, 4
_ZN7libsumoL25CMD_SUBSCRIBE_TL_VARIABLEE:
	.long	210
	.align 4
	.type	_ZN7libsumoL30RESPONSE_SUBSCRIBE_TL_VARIABLEE, @object
	.size	_ZN7libsumoL30RESPONSE_SUBSCRIBE_TL_VARIABLEE, 4
_ZN7libsumoL30RESPONSE_SUBSCRIBE_TL_VARIABLEE:
	.long	226
	.align 4
	.type	_ZN7libsumoL26CMD_SUBSCRIBE_LANE_CONTEXTE, @object
	.size	_ZN7libsumoL26CMD_SUBSCRIBE_LANE_CONTEXTE, 4
_ZN7libsumoL26CMD_SUBSCRIBE_LANE_CONTEXTE:
	.long	131
	.align 4
	.type	_ZN7libsumoL31RESPONSE_SUBSCRIBE_LANE_CONTEXTE, @object
	.size	_ZN7libsumoL31RESPONSE_SUBSCRIBE_LANE_CONTEXTE, 4
_ZN7libsumoL31RESPONSE_SUBSCRIBE_LANE_CONTEXTE:
	.long	147
	.align 4
	.type	_ZN7libsumoL21CMD_GET_LANE_VARIABLEE, @object
	.size	_ZN7libsumoL21CMD_GET_LANE_VARIABLEE, 4
_ZN7libsumoL21CMD_GET_LANE_VARIABLEE:
	.long	163
	.align 4
	.type	_ZN7libsumoL26RESPONSE_GET_LANE_VARIABLEE, @object
	.size	_ZN7libsumoL26RESPONSE_GET_LANE_VARIABLEE, 4
_ZN7libsumoL26RESPONSE_GET_LANE_VARIABLEE:
	.long	179
	.align 4
	.type	_ZN7libsumoL21CMD_SET_LANE_VARIABLEE, @object
	.size	_ZN7libsumoL21CMD_SET_LANE_VARIABLEE, 4
_ZN7libsumoL21CMD_SET_LANE_VARIABLEE:
	.long	195
	.align 4
	.type	_ZN7libsumoL27CMD_SUBSCRIBE_LANE_VARIABLEE, @object
	.size	_ZN7libsumoL27CMD_SUBSCRIBE_LANE_VARIABLEE, 4
_ZN7libsumoL27CMD_SUBSCRIBE_LANE_VARIABLEE:
	.long	211
	.align 4
	.type	_ZN7libsumoL32RESPONSE_SUBSCRIBE_LANE_VARIABLEE, @object
	.size	_ZN7libsumoL32RESPONSE_SUBSCRIBE_LANE_VARIABLEE, 4
_ZN7libsumoL32RESPONSE_SUBSCRIBE_LANE_VARIABLEE:
	.long	227
	.align 4
	.type	_ZN7libsumoL29CMD_SUBSCRIBE_VEHICLE_CONTEXTE, @object
	.size	_ZN7libsumoL29CMD_SUBSCRIBE_VEHICLE_CONTEXTE, 4
_ZN7libsumoL29CMD_SUBSCRIBE_VEHICLE_CONTEXTE:
	.long	132
	.align 4
	.type	_ZN7libsumoL34RESPONSE_SUBSCRIBE_VEHICLE_CONTEXTE, @object
	.size	_ZN7libsumoL34RESPONSE_SUBSCRIBE_VEHICLE_CONTEXTE, 4
_ZN7libsumoL34RESPONSE_SUBSCRIBE_VEHICLE_CONTEXTE:
	.long	148
	.align 4
	.type	_ZN7libsumoL24CMD_GET_VEHICLE_VARIABLEE, @object
	.size	_ZN7libsumoL24CMD_GET_VEHICLE_VARIABLEE, 4
_ZN7libsumoL24CMD_GET_VEHICLE_VARIABLEE:
	.long	164
	.align 4
	.type	_ZN7libsumoL29RESPONSE_GET_VEHICLE_VARIABLEE, @object
	.size	_ZN7libsumoL29RESPONSE_GET_VEHICLE_VARIABLEE, 4
_ZN7libsumoL29RESPONSE_GET_VEHICLE_VARIABLEE:
	.long	180
	.align 4
	.type	_ZN7libsumoL24CMD_SET_VEHICLE_VARIABLEE, @object
	.size	_ZN7libsumoL24CMD_SET_VEHICLE_VARIABLEE, 4
_ZN7libsumoL24CMD_SET_VEHICLE_VARIABLEE:
	.long	196
	.align 4
	.type	_ZN7libsumoL30CMD_SUBSCRIBE_VEHICLE_VARIABLEE, @object
	.size	_ZN7libsumoL30CMD_SUBSCRIBE_VEHICLE_VARIABLEE, 4
_ZN7libsumoL30CMD_SUBSCRIBE_VEHICLE_VARIABLEE:
	.long	212
	.align 4
	.type	_ZN7libsumoL35RESPONSE_SUBSCRIBE_VEHICLE_VARIABLEE, @object
	.size	_ZN7libsumoL35RESPONSE_SUBSCRIBE_VEHICLE_VARIABLEE, 4
_ZN7libsumoL35RESPONSE_SUBSCRIBE_VEHICLE_VARIABLEE:
	.long	228
	.align 4
	.type	_ZN7libsumoL33CMD_SUBSCRIBE_VEHICLETYPE_CONTEXTE, @object
	.size	_ZN7libsumoL33CMD_SUBSCRIBE_VEHICLETYPE_CONTEXTE, 4
_ZN7libsumoL33CMD_SUBSCRIBE_VEHICLETYPE_CONTEXTE:
	.long	133
	.align 4
	.type	_ZN7libsumoL38RESPONSE_SUBSCRIBE_VEHICLETYPE_CONTEXTE, @object
	.size	_ZN7libsumoL38RESPONSE_SUBSCRIBE_VEHICLETYPE_CONTEXTE, 4
_ZN7libsumoL38RESPONSE_SUBSCRIBE_VEHICLETYPE_CONTEXTE:
	.long	149
	.align 4
	.type	_ZN7libsumoL28CMD_GET_VEHICLETYPE_VARIABLEE, @object
	.size	_ZN7libsumoL28CMD_GET_VEHICLETYPE_VARIABLEE, 4
_ZN7libsumoL28CMD_GET_VEHICLETYPE_VARIABLEE:
	.long	165
	.align 4
	.type	_ZN7libsumoL33RESPONSE_GET_VEHICLETYPE_VARIABLEE, @object
	.size	_ZN7libsumoL33RESPONSE_GET_VEHICLETYPE_VARIABLEE, 4
_ZN7libsumoL33RESPONSE_GET_VEHICLETYPE_VARIABLEE:
	.long	181
	.align 4
	.type	_ZN7libsumoL28CMD_SET_VEHICLETYPE_VARIABLEE, @object
	.size	_ZN7libsumoL28CMD_SET_VEHICLETYPE_VARIABLEE, 4
_ZN7libsumoL28CMD_SET_VEHICLETYPE_VARIABLEE:
	.long	197
	.align 4
	.type	_ZN7libsumoL34CMD_SUBSCRIBE_VEHICLETYPE_VARIABLEE, @object
	.size	_ZN7libsumoL34CMD_SUBSCRIBE_VEHICLETYPE_VARIABLEE, 4
_ZN7libsumoL34CMD_SUBSCRIBE_VEHICLETYPE_VARIABLEE:
	.long	213
	.align 4
	.type	_ZN7libsumoL39RESPONSE_SUBSCRIBE_VEHICLETYPE_VARIABLEE, @object
	.size	_ZN7libsumoL39RESPONSE_SUBSCRIBE_VEHICLETYPE_VARIABLEE, 4
_ZN7libsumoL39RESPONSE_SUBSCRIBE_VEHICLETYPE_VARIABLEE:
	.long	229
	.align 4
	.type	_ZN7libsumoL27CMD_SUBSCRIBE_ROUTE_CONTEXTE, @object
	.size	_ZN7libsumoL27CMD_SUBSCRIBE_ROUTE_CONTEXTE, 4
_ZN7libsumoL27CMD_SUBSCRIBE_ROUTE_CONTEXTE:
	.long	134
	.align 4
	.type	_ZN7libsumoL32RESPONSE_SUBSCRIBE_ROUTE_CONTEXTE, @object
	.size	_ZN7libsumoL32RESPONSE_SUBSCRIBE_ROUTE_CONTEXTE, 4
_ZN7libsumoL32RESPONSE_SUBSCRIBE_ROUTE_CONTEXTE:
	.long	150
	.align 4
	.type	_ZN7libsumoL22CMD_GET_ROUTE_VARIABLEE, @object
	.size	_ZN7libsumoL22CMD_GET_ROUTE_VARIABLEE, 4
_ZN7libsumoL22CMD_GET_ROUTE_VARIABLEE:
	.long	166
	.align 4
	.type	_ZN7libsumoL27RESPONSE_GET_ROUTE_VARIABLEE, @object
	.size	_ZN7libsumoL27RESPONSE_GET_ROUTE_VARIABLEE, 4
_ZN7libsumoL27RESPONSE_GET_ROUTE_VARIABLEE:
	.long	182
	.align 4
	.type	_ZN7libsumoL22CMD_SET_ROUTE_VARIABLEE, @object
	.size	_ZN7libsumoL22CMD_SET_ROUTE_VARIABLEE, 4
_ZN7libsumoL22CMD_SET_ROUTE_VARIABLEE:
	.long	198
	.align 4
	.type	_ZN7libsumoL28CMD_SUBSCRIBE_ROUTE_VARIABLEE, @object
	.size	_ZN7libsumoL28CMD_SUBSCRIBE_ROUTE_VARIABLEE, 4
_ZN7libsumoL28CMD_SUBSCRIBE_ROUTE_VARIABLEE:
	.long	214
	.align 4
	.type	_ZN7libsumoL33RESPONSE_SUBSCRIBE_ROUTE_VARIABLEE, @object
	.size	_ZN7libsumoL33RESPONSE_SUBSCRIBE_ROUTE_VARIABLEE, 4
_ZN7libsumoL33RESPONSE_SUBSCRIBE_ROUTE_VARIABLEE:
	.long	230
	.align 4
	.type	_ZN7libsumoL25CMD_SUBSCRIBE_POI_CONTEXTE, @object
	.size	_ZN7libsumoL25CMD_SUBSCRIBE_POI_CONTEXTE, 4
_ZN7libsumoL25CMD_SUBSCRIBE_POI_CONTEXTE:
	.long	135
	.align 4
	.type	_ZN7libsumoL30RESPONSE_SUBSCRIBE_POI_CONTEXTE, @object
	.size	_ZN7libsumoL30RESPONSE_SUBSCRIBE_POI_CONTEXTE, 4
_ZN7libsumoL30RESPONSE_SUBSCRIBE_POI_CONTEXTE:
	.long	151
	.align 4
	.type	_ZN7libsumoL20CMD_GET_POI_VARIABLEE, @object
	.size	_ZN7libsumoL20CMD_GET_POI_VARIABLEE, 4
_ZN7libsumoL20CMD_GET_POI_VARIABLEE:
	.long	167
	.align 4
	.type	_ZN7libsumoL25RESPONSE_GET_POI_VARIABLEE, @object
	.size	_ZN7libsumoL25RESPONSE_GET_POI_VARIABLEE, 4
_ZN7libsumoL25RESPONSE_GET_POI_VARIABLEE:
	.long	183
	.align 4
	.type	_ZN7libsumoL20CMD_SET_POI_VARIABLEE, @object
	.size	_ZN7libsumoL20CMD_SET_POI_VARIABLEE, 4
_ZN7libsumoL20CMD_SET_POI_VARIABLEE:
	.long	199
	.align 4
	.type	_ZN7libsumoL26CMD_SUBSCRIBE_POI_VARIABLEE, @object
	.size	_ZN7libsumoL26CMD_SUBSCRIBE_POI_VARIABLEE, 4
_ZN7libsumoL26CMD_SUBSCRIBE_POI_VARIABLEE:
	.long	215
	.align 4
	.type	_ZN7libsumoL31RESPONSE_SUBSCRIBE_POI_VARIABLEE, @object
	.size	_ZN7libsumoL31RESPONSE_SUBSCRIBE_POI_VARIABLEE, 4
_ZN7libsumoL31RESPONSE_SUBSCRIBE_POI_VARIABLEE:
	.long	231
	.align 4
	.type	_ZN7libsumoL29CMD_SUBSCRIBE_POLYGON_CONTEXTE, @object
	.size	_ZN7libsumoL29CMD_SUBSCRIBE_POLYGON_CONTEXTE, 4
_ZN7libsumoL29CMD_SUBSCRIBE_POLYGON_CONTEXTE:
	.long	136
	.align 4
	.type	_ZN7libsumoL34RESPONSE_SUBSCRIBE_POLYGON_CONTEXTE, @object
	.size	_ZN7libsumoL34RESPONSE_SUBSCRIBE_POLYGON_CONTEXTE, 4
_ZN7libsumoL34RESPONSE_SUBSCRIBE_POLYGON_CONTEXTE:
	.long	152
	.align 4
	.type	_ZN7libsumoL24CMD_GET_POLYGON_VARIABLEE, @object
	.size	_ZN7libsumoL24CMD_GET_POLYGON_VARIABLEE, 4
_ZN7libsumoL24CMD_GET_POLYGON_VARIABLEE:
	.long	168
	.align 4
	.type	_ZN7libsumoL29RESPONSE_GET_POLYGON_VARIABLEE, @object
	.size	_ZN7libsumoL29RESPONSE_GET_POLYGON_VARIABLEE, 4
_ZN7libsumoL29RESPONSE_GET_POLYGON_VARIABLEE:
	.long	184
	.align 4
	.type	_ZN7libsumoL24CMD_SET_POLYGON_VARIABLEE, @object
	.size	_ZN7libsumoL24CMD_SET_POLYGON_VARIABLEE, 4
_ZN7libsumoL24CMD_SET_POLYGON_VARIABLEE:
	.long	200
	.align 4
	.type	_ZN7libsumoL30CMD_SUBSCRIBE_POLYGON_VARIABLEE, @object
	.size	_ZN7libsumoL30CMD_SUBSCRIBE_POLYGON_VARIABLEE, 4
_ZN7libsumoL30CMD_SUBSCRIBE_POLYGON_VARIABLEE:
	.long	216
	.align 4
	.type	_ZN7libsumoL35RESPONSE_SUBSCRIBE_POLYGON_VARIABLEE, @object
	.size	_ZN7libsumoL35RESPONSE_SUBSCRIBE_POLYGON_VARIABLEE, 4
_ZN7libsumoL35RESPONSE_SUBSCRIBE_POLYGON_VARIABLEE:
	.long	232
	.align 4
	.type	_ZN7libsumoL30CMD_SUBSCRIBE_JUNCTION_CONTEXTE, @object
	.size	_ZN7libsumoL30CMD_SUBSCRIBE_JUNCTION_CONTEXTE, 4
_ZN7libsumoL30CMD_SUBSCRIBE_JUNCTION_CONTEXTE:
	.long	137
	.align 4
	.type	_ZN7libsumoL35RESPONSE_SUBSCRIBE_JUNCTION_CONTEXTE, @object
	.size	_ZN7libsumoL35RESPONSE_SUBSCRIBE_JUNCTION_CONTEXTE, 4
_ZN7libsumoL35RESPONSE_SUBSCRIBE_JUNCTION_CONTEXTE:
	.long	153
	.align 4
	.type	_ZN7libsumoL25CMD_GET_JUNCTION_VARIABLEE, @object
	.size	_ZN7libsumoL25CMD_GET_JUNCTION_VARIABLEE, 4
_ZN7libsumoL25CMD_GET_JUNCTION_VARIABLEE:
	.long	169
	.align 4
	.type	_ZN7libsumoL30RESPONSE_GET_JUNCTION_VARIABLEE, @object
	.size	_ZN7libsumoL30RESPONSE_GET_JUNCTION_VARIABLEE, 4
_ZN7libsumoL30RESPONSE_GET_JUNCTION_VARIABLEE:
	.long	185
	.align 4
	.type	_ZN7libsumoL25CMD_SET_JUNCTION_VARIABLEE, @object
	.size	_ZN7libsumoL25CMD_SET_JUNCTION_VARIABLEE, 4
_ZN7libsumoL25CMD_SET_JUNCTION_VARIABLEE:
	.long	201
	.align 4
	.type	_ZN7libsumoL31CMD_SUBSCRIBE_JUNCTION_VARIABLEE, @object
	.size	_ZN7libsumoL31CMD_SUBSCRIBE_JUNCTION_VARIABLEE, 4
_ZN7libsumoL31CMD_SUBSCRIBE_JUNCTION_VARIABLEE:
	.long	217
	.align 4
	.type	_ZN7libsumoL36RESPONSE_SUBSCRIBE_JUNCTION_VARIABLEE, @object
	.size	_ZN7libsumoL36RESPONSE_SUBSCRIBE_JUNCTION_VARIABLEE, 4
_ZN7libsumoL36RESPONSE_SUBSCRIBE_JUNCTION_VARIABLEE:
	.long	233
	.align 4
	.type	_ZN7libsumoL26CMD_SUBSCRIBE_EDGE_CONTEXTE, @object
	.size	_ZN7libsumoL26CMD_SUBSCRIBE_EDGE_CONTEXTE, 4
_ZN7libsumoL26CMD_SUBSCRIBE_EDGE_CONTEXTE:
	.long	138
	.align 4
	.type	_ZN7libsumoL31RESPONSE_SUBSCRIBE_EDGE_CONTEXTE, @object
	.size	_ZN7libsumoL31RESPONSE_SUBSCRIBE_EDGE_CONTEXTE, 4
_ZN7libsumoL31RESPONSE_SUBSCRIBE_EDGE_CONTEXTE:
	.long	154
	.align 4
	.type	_ZN7libsumoL21CMD_GET_EDGE_VARIABLEE, @object
	.size	_ZN7libsumoL21CMD_GET_EDGE_VARIABLEE, 4
_ZN7libsumoL21CMD_GET_EDGE_VARIABLEE:
	.long	170
	.align 4
	.type	_ZN7libsumoL26RESPONSE_GET_EDGE_VARIABLEE, @object
	.size	_ZN7libsumoL26RESPONSE_GET_EDGE_VARIABLEE, 4
_ZN7libsumoL26RESPONSE_GET_EDGE_VARIABLEE:
	.long	186
	.align 4
	.type	_ZN7libsumoL21CMD_SET_EDGE_VARIABLEE, @object
	.size	_ZN7libsumoL21CMD_SET_EDGE_VARIABLEE, 4
_ZN7libsumoL21CMD_SET_EDGE_VARIABLEE:
	.long	202
	.align 4
	.type	_ZN7libsumoL27CMD_SUBSCRIBE_EDGE_VARIABLEE, @object
	.size	_ZN7libsumoL27CMD_SUBSCRIBE_EDGE_VARIABLEE, 4
_ZN7libsumoL27CMD_SUBSCRIBE_EDGE_VARIABLEE:
	.long	218
	.align 4
	.type	_ZN7libsumoL32RESPONSE_SUBSCRIBE_EDGE_VARIABLEE, @object
	.size	_ZN7libsumoL32RESPONSE_SUBSCRIBE_EDGE_VARIABLEE, 4
_ZN7libsumoL32RESPONSE_SUBSCRIBE_EDGE_VARIABLEE:
	.long	234
	.align 4
	.type	_ZN7libsumoL25CMD_SUBSCRIBE_SIM_CONTEXTE, @object
	.size	_ZN7libsumoL25CMD_SUBSCRIBE_SIM_CONTEXTE, 4
_ZN7libsumoL25CMD_SUBSCRIBE_SIM_CONTEXTE:
	.long	139
	.align 4
	.type	_ZN7libsumoL30RESPONSE_SUBSCRIBE_SIM_CONTEXTE, @object
	.size	_ZN7libsumoL30RESPONSE_SUBSCRIBE_SIM_CONTEXTE, 4
_ZN7libsumoL30RESPONSE_SUBSCRIBE_SIM_CONTEXTE:
	.long	155
	.align 4
	.type	_ZN7libsumoL20CMD_GET_SIM_VARIABLEE, @object
	.size	_ZN7libsumoL20CMD_GET_SIM_VARIABLEE, 4
_ZN7libsumoL20CMD_GET_SIM_VARIABLEE:
	.long	171
	.align 4
	.type	_ZN7libsumoL25RESPONSE_GET_SIM_VARIABLEE, @object
	.size	_ZN7libsumoL25RESPONSE_GET_SIM_VARIABLEE, 4
_ZN7libsumoL25RESPONSE_GET_SIM_VARIABLEE:
	.long	187
	.align 4
	.type	_ZN7libsumoL20CMD_SET_SIM_VARIABLEE, @object
	.size	_ZN7libsumoL20CMD_SET_SIM_VARIABLEE, 4
_ZN7libsumoL20CMD_SET_SIM_VARIABLEE:
	.long	203
	.align 4
	.type	_ZN7libsumoL26CMD_SUBSCRIBE_SIM_VARIABLEE, @object
	.size	_ZN7libsumoL26CMD_SUBSCRIBE_SIM_VARIABLEE, 4
_ZN7libsumoL26CMD_SUBSCRIBE_SIM_VARIABLEE:
	.long	219
	.align 4
	.type	_ZN7libsumoL31RESPONSE_SUBSCRIBE_SIM_VARIABLEE, @object
	.size	_ZN7libsumoL31RESPONSE_SUBSCRIBE_SIM_VARIABLEE, 4
_ZN7libsumoL31RESPONSE_SUBSCRIBE_SIM_VARIABLEE:
	.long	235
	.align 4
	.type	_ZN7libsumoL25CMD_SUBSCRIBE_GUI_CONTEXTE, @object
	.size	_ZN7libsumoL25CMD_SUBSCRIBE_GUI_CONTEXTE, 4
_ZN7libsumoL25CMD_SUBSCRIBE_GUI_CONTEXTE:
	.long	140
	.align 4
	.type	_ZN7libsumoL30RESPONSE_SUBSCRIBE_GUI_CONTEXTE, @object
	.size	_ZN7libsumoL30RESPONSE_SUBSCRIBE_GUI_CONTEXTE, 4
_ZN7libsumoL30RESPONSE_SUBSCRIBE_GUI_CONTEXTE:
	.long	156
	.align 4
	.type	_ZN7libsumoL20CMD_GET_GUI_VARIABLEE, @object
	.size	_ZN7libsumoL20CMD_GET_GUI_VARIABLEE, 4
_ZN7libsumoL20CMD_GET_GUI_VARIABLEE:
	.long	172
	.align 4
	.type	_ZN7libsumoL25RESPONSE_GET_GUI_VARIABLEE, @object
	.size	_ZN7libsumoL25RESPONSE_GET_GUI_VARIABLEE, 4
_ZN7libsumoL25RESPONSE_GET_GUI_VARIABLEE:
	.long	188
	.align 4
	.type	_ZN7libsumoL20CMD_SET_GUI_VARIABLEE, @object
	.size	_ZN7libsumoL20CMD_SET_GUI_VARIABLEE, 4
_ZN7libsumoL20CMD_SET_GUI_VARIABLEE:
	.long	204
	.align 4
	.type	_ZN7libsumoL26CMD_SUBSCRIBE_GUI_VARIABLEE, @object
	.size	_ZN7libsumoL26CMD_SUBSCRIBE_GUI_VARIABLEE, 4
_ZN7libsumoL26CMD_SUBSCRIBE_GUI_VARIABLEE:
	.long	220
	.align 4
	.type	_ZN7libsumoL31RESPONSE_SUBSCRIBE_GUI_VARIABLEE, @object
	.size	_ZN7libsumoL31RESPONSE_SUBSCRIBE_GUI_VARIABLEE, 4
_ZN7libsumoL31RESPONSE_SUBSCRIBE_GUI_VARIABLEE:
	.long	236
	.align 4
	.type	_ZN7libsumoL30CMD_SUBSCRIBE_LANEAREA_CONTEXTE, @object
	.size	_ZN7libsumoL30CMD_SUBSCRIBE_LANEAREA_CONTEXTE, 4
_ZN7libsumoL30CMD_SUBSCRIBE_LANEAREA_CONTEXTE:
	.long	141
	.align 4
	.type	_ZN7libsumoL35RESPONSE_SUBSCRIBE_LANEAREA_CONTEXTE, @object
	.size	_ZN7libsumoL35RESPONSE_SUBSCRIBE_LANEAREA_CONTEXTE, 4
_ZN7libsumoL35RESPONSE_SUBSCRIBE_LANEAREA_CONTEXTE:
	.long	157
	.align 4
	.type	_ZN7libsumoL25CMD_GET_LANEAREA_VARIABLEE, @object
	.size	_ZN7libsumoL25CMD_GET_LANEAREA_VARIABLEE, 4
_ZN7libsumoL25CMD_GET_LANEAREA_VARIABLEE:
	.long	173
	.align 4
	.type	_ZN7libsumoL30RESPONSE_GET_LANEAREA_VARIABLEE, @object
	.size	_ZN7libsumoL30RESPONSE_GET_LANEAREA_VARIABLEE, 4
_ZN7libsumoL30RESPONSE_GET_LANEAREA_VARIABLEE:
	.long	189
	.align 4
	.type	_ZN7libsumoL25CMD_SET_LANEAREA_VARIABLEE, @object
	.size	_ZN7libsumoL25CMD_SET_LANEAREA_VARIABLEE, 4
_ZN7libsumoL25CMD_SET_LANEAREA_VARIABLEE:
	.long	205
	.align 4
	.type	_ZN7libsumoL31CMD_SUBSCRIBE_LANEAREA_VARIABLEE, @object
	.size	_ZN7libsumoL31CMD_SUBSCRIBE_LANEAREA_VARIABLEE, 4
_ZN7libsumoL31CMD_SUBSCRIBE_LANEAREA_VARIABLEE:
	.long	221
	.align 4
	.type	_ZN7libsumoL36RESPONSE_SUBSCRIBE_LANEAREA_VARIABLEE, @object
	.size	_ZN7libsumoL36RESPONSE_SUBSCRIBE_LANEAREA_VARIABLEE, 4
_ZN7libsumoL36RESPONSE_SUBSCRIBE_LANEAREA_VARIABLEE:
	.long	237
	.align 4
	.type	_ZN7libsumoL28CMD_SUBSCRIBE_PERSON_CONTEXTE, @object
	.size	_ZN7libsumoL28CMD_SUBSCRIBE_PERSON_CONTEXTE, 4
_ZN7libsumoL28CMD_SUBSCRIBE_PERSON_CONTEXTE:
	.long	142
	.align 4
	.type	_ZN7libsumoL33RESPONSE_SUBSCRIBE_PERSON_CONTEXTE, @object
	.size	_ZN7libsumoL33RESPONSE_SUBSCRIBE_PERSON_CONTEXTE, 4
_ZN7libsumoL33RESPONSE_SUBSCRIBE_PERSON_CONTEXTE:
	.long	158
	.align 4
	.type	_ZN7libsumoL23CMD_GET_PERSON_VARIABLEE, @object
	.size	_ZN7libsumoL23CMD_GET_PERSON_VARIABLEE, 4
_ZN7libsumoL23CMD_GET_PERSON_VARIABLEE:
	.long	174
	.align 4
	.type	_ZN7libsumoL28RESPONSE_GET_PERSON_VARIABLEE, @object
	.size	_ZN7libsumoL28RESPONSE_GET_PERSON_VARIABLEE, 4
_ZN7libsumoL28RESPONSE_GET_PERSON_VARIABLEE:
	.long	190
	.align 4
	.type	_ZN7libsumoL23CMD_SET_PERSON_VARIABLEE, @object
	.size	_ZN7libsumoL23CMD_SET_PERSON_VARIABLEE, 4
_ZN7libsumoL23CMD_SET_PERSON_VARIABLEE:
	.long	206
	.align 4
	.type	_ZN7libsumoL29CMD_SUBSCRIBE_PERSON_VARIABLEE, @object
	.size	_ZN7libsumoL29CMD_SUBSCRIBE_PERSON_VARIABLEE, 4
_ZN7libsumoL29CMD_SUBSCRIBE_PERSON_VARIABLEE:
	.long	222
	.align 4
	.type	_ZN7libsumoL34RESPONSE_SUBSCRIBE_PERSON_VARIABLEE, @object
	.size	_ZN7libsumoL34RESPONSE_SUBSCRIBE_PERSON_VARIABLEE, 4
_ZN7libsumoL34RESPONSE_SUBSCRIBE_PERSON_VARIABLEE:
	.long	238
	.align 4
	.type	_ZN7libsumoL29CMD_SUBSCRIBE_BUSSTOP_CONTEXTE, @object
	.size	_ZN7libsumoL29CMD_SUBSCRIBE_BUSSTOP_CONTEXTE, 4
_ZN7libsumoL29CMD_SUBSCRIBE_BUSSTOP_CONTEXTE:
	.long	143
	.align 4
	.type	_ZN7libsumoL34RESPONSE_SUBSCRIBE_BUSSTOP_CONTEXTE, @object
	.size	_ZN7libsumoL34RESPONSE_SUBSCRIBE_BUSSTOP_CONTEXTE, 4
_ZN7libsumoL34RESPONSE_SUBSCRIBE_BUSSTOP_CONTEXTE:
	.long	159
	.align 4
	.type	_ZN7libsumoL24CMD_GET_BUSSTOP_VARIABLEE, @object
	.size	_ZN7libsumoL24CMD_GET_BUSSTOP_VARIABLEE, 4
_ZN7libsumoL24CMD_GET_BUSSTOP_VARIABLEE:
	.long	175
	.align 4
	.type	_ZN7libsumoL29RESPONSE_GET_BUSSTOP_VARIABLEE, @object
	.size	_ZN7libsumoL29RESPONSE_GET_BUSSTOP_VARIABLEE, 4
_ZN7libsumoL29RESPONSE_GET_BUSSTOP_VARIABLEE:
	.long	191
	.align 4
	.type	_ZN7libsumoL24CMD_SET_BUSSTOP_VARIABLEE, @object
	.size	_ZN7libsumoL24CMD_SET_BUSSTOP_VARIABLEE, 4
_ZN7libsumoL24CMD_SET_BUSSTOP_VARIABLEE:
	.long	207
	.align 4
	.type	_ZN7libsumoL30CMD_SUBSCRIBE_BUSSTOP_VARIABLEE, @object
	.size	_ZN7libsumoL30CMD_SUBSCRIBE_BUSSTOP_VARIABLEE, 4
_ZN7libsumoL30CMD_SUBSCRIBE_BUSSTOP_VARIABLEE:
	.long	223
	.align 4
	.type	_ZN7libsumoL35RESPONSE_SUBSCRIBE_BUSSTOP_VARIABLEE, @object
	.size	_ZN7libsumoL35RESPONSE_SUBSCRIBE_BUSSTOP_VARIABLEE, 4
_ZN7libsumoL35RESPONSE_SUBSCRIBE_BUSSTOP_VARIABLEE:
	.long	239
	.align 4
	.type	_ZN7libsumoL33CMD_SUBSCRIBE_PARKINGAREA_CONTEXTE, @object
	.size	_ZN7libsumoL33CMD_SUBSCRIBE_PARKINGAREA_CONTEXTE, 4
_ZN7libsumoL33CMD_SUBSCRIBE_PARKINGAREA_CONTEXTE:
	.long	4
	.align 4
	.type	_ZN7libsumoL38RESPONSE_SUBSCRIBE_PARKINGAREA_CONTEXTE, @object
	.size	_ZN7libsumoL38RESPONSE_SUBSCRIBE_PARKINGAREA_CONTEXTE, 4
_ZN7libsumoL38RESPONSE_SUBSCRIBE_PARKINGAREA_CONTEXTE:
	.long	20
	.align 4
	.type	_ZN7libsumoL28CMD_GET_PARKINGAREA_VARIABLEE, @object
	.size	_ZN7libsumoL28CMD_GET_PARKINGAREA_VARIABLEE, 4
_ZN7libsumoL28CMD_GET_PARKINGAREA_VARIABLEE:
	.long	36
	.align 4
	.type	_ZN7libsumoL33RESPONSE_GET_PARKINGAREA_VARIABLEE, @object
	.size	_ZN7libsumoL33RESPONSE_GET_PARKINGAREA_VARIABLEE, 4
_ZN7libsumoL33RESPONSE_GET_PARKINGAREA_VARIABLEE:
	.long	52
	.align 4
	.type	_ZN7libsumoL28CMD_SET_PARKINGAREA_VARIABLEE, @object
	.size	_ZN7libsumoL28CMD_SET_PARKINGAREA_VARIABLEE, 4
_ZN7libsumoL28CMD_SET_PARKINGAREA_VARIABLEE:
	.long	68
	.align 4
	.type	_ZN7libsumoL34CMD_SUBSCRIBE_PARKINGAREA_VARIABLEE, @object
	.size	_ZN7libsumoL34CMD_SUBSCRIBE_PARKINGAREA_VARIABLEE, 4
_ZN7libsumoL34CMD_SUBSCRIBE_PARKINGAREA_VARIABLEE:
	.long	84
	.align 4
	.type	_ZN7libsumoL39RESPONSE_SUBSCRIBE_PARKINGAREA_VARIABLEE, @object
	.size	_ZN7libsumoL39RESPONSE_SUBSCRIBE_PARKINGAREA_VARIABLEE, 4
_ZN7libsumoL39RESPONSE_SUBSCRIBE_PARKINGAREA_VARIABLEE:
	.long	100
	.align 4
	.type	_ZN7libsumoL37CMD_SUBSCRIBE_CHARGINGSTATION_CONTEXTE, @object
	.size	_ZN7libsumoL37CMD_SUBSCRIBE_CHARGINGSTATION_CONTEXTE, 4
_ZN7libsumoL37CMD_SUBSCRIBE_CHARGINGSTATION_CONTEXTE:
	.long	5
	.align 4
	.type	_ZN7libsumoL42RESPONSE_SUBSCRIBE_CHARGINGSTATION_CONTEXTE, @object
	.size	_ZN7libsumoL42RESPONSE_SUBSCRIBE_CHARGINGSTATION_CONTEXTE, 4
_ZN7libsumoL42RESPONSE_SUBSCRIBE_CHARGINGSTATION_CONTEXTE:
	.long	21
	.align 4
	.type	_ZN7libsumoL32CMD_GET_CHARGINGSTATION_VARIABLEE, @object
	.size	_ZN7libsumoL32CMD_GET_CHARGINGSTATION_VARIABLEE, 4
_ZN7libsumoL32CMD_GET_CHARGINGSTATION_VARIABLEE:
	.long	37
	.align 4
	.type	_ZN7libsumoL37RESPONSE_GET_CHARGINGSTATION_VARIABLEE, @object
	.size	_ZN7libsumoL37RESPONSE_GET_CHARGINGSTATION_VARIABLEE, 4
_ZN7libsumoL37RESPONSE_GET_CHARGINGSTATION_VARIABLEE:
	.long	53
	.align 4
	.type	_ZN7libsumoL32CMD_SET_CHARGINGSTATION_VARIABLEE, @object
	.size	_ZN7libsumoL32CMD_SET_CHARGINGSTATION_VARIABLEE, 4
_ZN7libsumoL32CMD_SET_CHARGINGSTATION_VARIABLEE:
	.long	69
	.align 4
	.type	_ZN7libsumoL38CMD_SUBSCRIBE_CHARGINGSTATION_VARIABLEE, @object
	.size	_ZN7libsumoL38CMD_SUBSCRIBE_CHARGINGSTATION_VARIABLEE, 4
_ZN7libsumoL38CMD_SUBSCRIBE_CHARGINGSTATION_VARIABLEE:
	.long	85
	.align 4
	.type	_ZN7libsumoL43RESPONSE_SUBSCRIBE_CHARGINGSTATION_VARIABLEE, @object
	.size	_ZN7libsumoL43RESPONSE_SUBSCRIBE_CHARGINGSTATION_VARIABLEE, 4
_ZN7libsumoL43RESPONSE_SUBSCRIBE_CHARGINGSTATION_VARIABLEE:
	.long	101
	.align 4
	.type	_ZN7libsumoL32CMD_SUBSCRIBE_ROUTEPROBE_CONTEXTE, @object
	.size	_ZN7libsumoL32CMD_SUBSCRIBE_ROUTEPROBE_CONTEXTE, 4
_ZN7libsumoL32CMD_SUBSCRIBE_ROUTEPROBE_CONTEXTE:
	.long	6
	.align 4
	.type	_ZN7libsumoL37RESPONSE_SUBSCRIBE_ROUTEPROBE_CONTEXTE, @object
	.size	_ZN7libsumoL37RESPONSE_SUBSCRIBE_ROUTEPROBE_CONTEXTE, 4
_ZN7libsumoL37RESPONSE_SUBSCRIBE_ROUTEPROBE_CONTEXTE:
	.long	22
	.align 4
	.type	_ZN7libsumoL27CMD_GET_ROUTEPROBE_VARIABLEE, @object
	.size	_ZN7libsumoL27CMD_GET_ROUTEPROBE_VARIABLEE, 4
_ZN7libsumoL27CMD_GET_ROUTEPROBE_VARIABLEE:
	.long	38
	.align 4
	.type	_ZN7libsumoL32RESPONSE_GET_ROUTEPROBE_VARIABLEE, @object
	.size	_ZN7libsumoL32RESPONSE_GET_ROUTEPROBE_VARIABLEE, 4
_ZN7libsumoL32RESPONSE_GET_ROUTEPROBE_VARIABLEE:
	.long	54
	.align 4
	.type	_ZN7libsumoL27CMD_SET_ROUTEPROBE_VARIABLEE, @object
	.size	_ZN7libsumoL27CMD_SET_ROUTEPROBE_VARIABLEE, 4
_ZN7libsumoL27CMD_SET_ROUTEPROBE_VARIABLEE:
	.long	70
	.align 4
	.type	_ZN7libsumoL33CMD_SUBSCRIBE_ROUTEPROBE_VARIABLEE, @object
	.size	_ZN7libsumoL33CMD_SUBSCRIBE_ROUTEPROBE_VARIABLEE, 4
_ZN7libsumoL33CMD_SUBSCRIBE_ROUTEPROBE_VARIABLEE:
	.long	86
	.align 4
	.type	_ZN7libsumoL38RESPONSE_SUBSCRIBE_ROUTEPROBE_VARIABLEE, @object
	.size	_ZN7libsumoL38RESPONSE_SUBSCRIBE_ROUTEPROBE_VARIABLEE, 4
_ZN7libsumoL38RESPONSE_SUBSCRIBE_ROUTEPROBE_VARIABLEE:
	.long	102
	.align 4
	.type	_ZN7libsumoL32CMD_SUBSCRIBE_CALIBRATOR_CONTEXTE, @object
	.size	_ZN7libsumoL32CMD_SUBSCRIBE_CALIBRATOR_CONTEXTE, 4
_ZN7libsumoL32CMD_SUBSCRIBE_CALIBRATOR_CONTEXTE:
	.long	7
	.align 4
	.type	_ZN7libsumoL37RESPONSE_SUBSCRIBE_CALIBRATOR_CONTEXTE, @object
	.size	_ZN7libsumoL37RESPONSE_SUBSCRIBE_CALIBRATOR_CONTEXTE, 4
_ZN7libsumoL37RESPONSE_SUBSCRIBE_CALIBRATOR_CONTEXTE:
	.long	23
	.align 4
	.type	_ZN7libsumoL27CMD_GET_CALIBRATOR_VARIABLEE, @object
	.size	_ZN7libsumoL27CMD_GET_CALIBRATOR_VARIABLEE, 4
_ZN7libsumoL27CMD_GET_CALIBRATOR_VARIABLEE:
	.long	39
	.align 4
	.type	_ZN7libsumoL32RESPONSE_GET_CALIBRATOR_VARIABLEE, @object
	.size	_ZN7libsumoL32RESPONSE_GET_CALIBRATOR_VARIABLEE, 4
_ZN7libsumoL32RESPONSE_GET_CALIBRATOR_VARIABLEE:
	.long	55
	.align 4
	.type	_ZN7libsumoL27CMD_SET_CALIBRATOR_VARIABLEE, @object
	.size	_ZN7libsumoL27CMD_SET_CALIBRATOR_VARIABLEE, 4
_ZN7libsumoL27CMD_SET_CALIBRATOR_VARIABLEE:
	.long	71
	.align 4
	.type	_ZN7libsumoL33CMD_SUBSCRIBE_CALIBRATOR_VARIABLEE, @object
	.size	_ZN7libsumoL33CMD_SUBSCRIBE_CALIBRATOR_VARIABLEE, 4
_ZN7libsumoL33CMD_SUBSCRIBE_CALIBRATOR_VARIABLEE:
	.long	87
	.align 4
	.type	_ZN7libsumoL38RESPONSE_SUBSCRIBE_CALIBRATOR_VARIABLEE, @object
	.size	_ZN7libsumoL38RESPONSE_SUBSCRIBE_CALIBRATOR_VARIABLEE, 4
_ZN7libsumoL38RESPONSE_SUBSCRIBE_CALIBRATOR_VARIABLEE:
	.long	103
	.align 4
	.type	_ZN7libsumoL30CMD_SUBSCRIBE_REROUTER_CONTEXTE, @object
	.size	_ZN7libsumoL30CMD_SUBSCRIBE_REROUTER_CONTEXTE, 4
_ZN7libsumoL30CMD_SUBSCRIBE_REROUTER_CONTEXTE:
	.long	8
	.align 4
	.type	_ZN7libsumoL35RESPONSE_SUBSCRIBE_REROUTER_CONTEXTE, @object
	.size	_ZN7libsumoL35RESPONSE_SUBSCRIBE_REROUTER_CONTEXTE, 4
_ZN7libsumoL35RESPONSE_SUBSCRIBE_REROUTER_CONTEXTE:
	.long	24
	.align 4
	.type	_ZN7libsumoL25CMD_GET_REROUTER_VARIABLEE, @object
	.size	_ZN7libsumoL25CMD_GET_REROUTER_VARIABLEE, 4
_ZN7libsumoL25CMD_GET_REROUTER_VARIABLEE:
	.long	40
	.align 4
	.type	_ZN7libsumoL30RESPONSE_GET_REROUTER_VARIABLEE, @object
	.size	_ZN7libsumoL30RESPONSE_GET_REROUTER_VARIABLEE, 4
_ZN7libsumoL30RESPONSE_GET_REROUTER_VARIABLEE:
	.long	56
	.align 4
	.type	_ZN7libsumoL25CMD_SET_REROUTER_VARIABLEE, @object
	.size	_ZN7libsumoL25CMD_SET_REROUTER_VARIABLEE, 4
_ZN7libsumoL25CMD_SET_REROUTER_VARIABLEE:
	.long	72
	.align 4
	.type	_ZN7libsumoL31CMD_SUBSCRIBE_REROUTER_VARIABLEE, @object
	.size	_ZN7libsumoL31CMD_SUBSCRIBE_REROUTER_VARIABLEE, 4
_ZN7libsumoL31CMD_SUBSCRIBE_REROUTER_VARIABLEE:
	.long	88
	.align 4
	.type	_ZN7libsumoL36RESPONSE_SUBSCRIBE_REROUTER_VARIABLEE, @object
	.size	_ZN7libsumoL36RESPONSE_SUBSCRIBE_REROUTER_VARIABLEE, 4
_ZN7libsumoL36RESPONSE_SUBSCRIBE_REROUTER_VARIABLEE:
	.long	104
	.align 4
	.type	_ZN7libsumoL39CMD_SUBSCRIBE_VARIABLESPEEDSIGN_CONTEXTE, @object
	.size	_ZN7libsumoL39CMD_SUBSCRIBE_VARIABLESPEEDSIGN_CONTEXTE, 4
_ZN7libsumoL39CMD_SUBSCRIBE_VARIABLESPEEDSIGN_CONTEXTE:
	.long	9
	.align 4
	.type	_ZN7libsumoL44RESPONSE_SUBSCRIBE_VARIABLESPEEDSIGN_CONTEXTE, @object
	.size	_ZN7libsumoL44RESPONSE_SUBSCRIBE_VARIABLESPEEDSIGN_CONTEXTE, 4
_ZN7libsumoL44RESPONSE_SUBSCRIBE_VARIABLESPEEDSIGN_CONTEXTE:
	.long	25
	.align 4
	.type	_ZN7libsumoL34CMD_GET_VARIABLESPEEDSIGN_VARIABLEE, @object
	.size	_ZN7libsumoL34CMD_GET_VARIABLESPEEDSIGN_VARIABLEE, 4
_ZN7libsumoL34CMD_GET_VARIABLESPEEDSIGN_VARIABLEE:
	.long	41
	.align 4
	.type	_ZN7libsumoL39RESPONSE_GET_VARIABLESPEEDSIGN_VARIABLEE, @object
	.size	_ZN7libsumoL39RESPONSE_GET_VARIABLESPEEDSIGN_VARIABLEE, 4
_ZN7libsumoL39RESPONSE_GET_VARIABLESPEEDSIGN_VARIABLEE:
	.long	57
	.align 4
	.type	_ZN7libsumoL34CMD_SET_VARIABLESPEEDSIGN_VARIABLEE, @object
	.size	_ZN7libsumoL34CMD_SET_VARIABLESPEEDSIGN_VARIABLEE, 4
_ZN7libsumoL34CMD_SET_VARIABLESPEEDSIGN_VARIABLEE:
	.long	73
	.align 4
	.type	_ZN7libsumoL40CMD_SUBSCRIBE_VARIABLESPEEDSIGN_VARIABLEE, @object
	.size	_ZN7libsumoL40CMD_SUBSCRIBE_VARIABLESPEEDSIGN_VARIABLEE, 4
_ZN7libsumoL40CMD_SUBSCRIBE_VARIABLESPEEDSIGN_VARIABLEE:
	.long	89
	.align 4
	.type	_ZN7libsumoL45RESPONSE_SUBSCRIBE_VARIABLESPEEDSIGN_VARIABLEE, @object
	.size	_ZN7libsumoL45RESPONSE_SUBSCRIBE_VARIABLESPEEDSIGN_VARIABLEE, 4
_ZN7libsumoL45RESPONSE_SUBSCRIBE_VARIABLESPEEDSIGN_VARIABLEE:
	.long	105
	.align 4
	.type	_ZN7libsumoL30CMD_SUBSCRIBE_MEANDATA_CONTEXTE, @object
	.size	_ZN7libsumoL30CMD_SUBSCRIBE_MEANDATA_CONTEXTE, 4
_ZN7libsumoL30CMD_SUBSCRIBE_MEANDATA_CONTEXTE:
	.long	10
	.align 4
	.type	_ZN7libsumoL35RESPONSE_SUBSCRIBE_MEANDATA_CONTEXTE, @object
	.size	_ZN7libsumoL35RESPONSE_SUBSCRIBE_MEANDATA_CONTEXTE, 4
_ZN7libsumoL35RESPONSE_SUBSCRIBE_MEANDATA_CONTEXTE:
	.long	26
	.align 4
	.type	_ZN7libsumoL25CMD_GET_MEANDATA_VARIABLEE, @object
	.size	_ZN7libsumoL25CMD_GET_MEANDATA_VARIABLEE, 4
_ZN7libsumoL25CMD_GET_MEANDATA_VARIABLEE:
	.long	42
	.align 4
	.type	_ZN7libsumoL30RESPONSE_GET_MEANDATA_VARIABLEE, @object
	.size	_ZN7libsumoL30RESPONSE_GET_MEANDATA_VARIABLEE, 4
_ZN7libsumoL30RESPONSE_GET_MEANDATA_VARIABLEE:
	.long	58
	.align 4
	.type	_ZN7libsumoL25CMD_SET_MEANDATA_VARIABLEE, @object
	.size	_ZN7libsumoL25CMD_SET_MEANDATA_VARIABLEE, 4
_ZN7libsumoL25CMD_SET_MEANDATA_VARIABLEE:
	.long	74
	.align 4
	.type	_ZN7libsumoL31CMD_SUBSCRIBE_MEANDATA_VARIABLEE, @object
	.size	_ZN7libsumoL31CMD_SUBSCRIBE_MEANDATA_VARIABLEE, 4
_ZN7libsumoL31CMD_SUBSCRIBE_MEANDATA_VARIABLEE:
	.long	90
	.align 4
	.type	_ZN7libsumoL36RESPONSE_SUBSCRIBE_MEANDATA_VARIABLEE, @object
	.size	_ZN7libsumoL36RESPONSE_SUBSCRIBE_MEANDATA_VARIABLEE, 4
_ZN7libsumoL36RESPONSE_SUBSCRIBE_MEANDATA_VARIABLEE:
	.long	106
	.align 4
	.type	_ZN7libsumoL34CMD_SUBSCRIBE_OVERHEADWIRE_CONTEXTE, @object
	.size	_ZN7libsumoL34CMD_SUBSCRIBE_OVERHEADWIRE_CONTEXTE, 4
_ZN7libsumoL34CMD_SUBSCRIBE_OVERHEADWIRE_CONTEXTE:
	.long	11
	.align 4
	.type	_ZN7libsumoL39RESPONSE_SUBSCRIBE_OVERHEADWIRE_CONTEXTE, @object
	.size	_ZN7libsumoL39RESPONSE_SUBSCRIBE_OVERHEADWIRE_CONTEXTE, 4
_ZN7libsumoL39RESPONSE_SUBSCRIBE_OVERHEADWIRE_CONTEXTE:
	.long	27
	.align 4
	.type	_ZN7libsumoL29CMD_GET_OVERHEADWIRE_VARIABLEE, @object
	.size	_ZN7libsumoL29CMD_GET_OVERHEADWIRE_VARIABLEE, 4
_ZN7libsumoL29CMD_GET_OVERHEADWIRE_VARIABLEE:
	.long	43
	.align 4
	.type	_ZN7libsumoL34RESPONSE_GET_OVERHEADWIRE_VARIABLEE, @object
	.size	_ZN7libsumoL34RESPONSE_GET_OVERHEADWIRE_VARIABLEE, 4
_ZN7libsumoL34RESPONSE_GET_OVERHEADWIRE_VARIABLEE:
	.long	59
	.align 4
	.type	_ZN7libsumoL29CMD_SET_OVERHEADWIRE_VARIABLEE, @object
	.size	_ZN7libsumoL29CMD_SET_OVERHEADWIRE_VARIABLEE, 4
_ZN7libsumoL29CMD_SET_OVERHEADWIRE_VARIABLEE:
	.long	75
	.align 4
	.type	_ZN7libsumoL35CMD_SUBSCRIBE_OVERHEADWIRE_VARIABLEE, @object
	.size	_ZN7libsumoL35CMD_SUBSCRIBE_OVERHEADWIRE_VARIABLEE, 4
_ZN7libsumoL35CMD_SUBSCRIBE_OVERHEADWIRE_VARIABLEE:
	.long	91
	.align 4
	.type	_ZN7libsumoL40RESPONSE_SUBSCRIBE_OVERHEADWIRE_VARIABLEE, @object
	.size	_ZN7libsumoL40RESPONSE_SUBSCRIBE_OVERHEADWIRE_VARIABLEE, 4
_ZN7libsumoL40RESPONSE_SUBSCRIBE_OVERHEADWIRE_VARIABLEE:
	.long	107
	.align 4
	.type	_ZN7libsumoL16POSITION_LON_LATE, @object
	.size	_ZN7libsumoL16POSITION_LON_LATE, 4
_ZN7libsumoL16POSITION_LON_LATE:
	.zero	4
	.align 4
	.type	_ZN7libsumoL11POSITION_2DE, @object
	.size	_ZN7libsumoL11POSITION_2DE, 4
_ZN7libsumoL11POSITION_2DE:
	.long	1
	.align 4
	.type	_ZN7libsumoL20POSITION_LON_LAT_ALTE, @object
	.size	_ZN7libsumoL20POSITION_LON_LAT_ALTE, 4
_ZN7libsumoL20POSITION_LON_LAT_ALTE:
	.long	2
	.align 4
	.type	_ZN7libsumoL11POSITION_3DE, @object
	.size	_ZN7libsumoL11POSITION_3DE, 4
_ZN7libsumoL11POSITION_3DE:
	.long	3
	.align 4
	.type	_ZN7libsumoL16POSITION_ROADMAPE, @object
	.size	_ZN7libsumoL16POSITION_ROADMAPE, 4
_ZN7libsumoL16POSITION_ROADMAPE:
	.long	4
	.align 4
	.type	_ZN7libsumoL12TYPE_POLYGONE, @object
	.size	_ZN7libsumoL12TYPE_POLYGONE, 4
_ZN7libsumoL12TYPE_POLYGONE:
	.long	6
	.align 4
	.type	_ZN7libsumoL10TYPE_UBYTEE, @object
	.size	_ZN7libsumoL10TYPE_UBYTEE, 4
_ZN7libsumoL10TYPE_UBYTEE:
	.long	7
	.align 4
	.type	_ZN7libsumoL9TYPE_BYTEE, @object
	.size	_ZN7libsumoL9TYPE_BYTEE, 4
_ZN7libsumoL9TYPE_BYTEE:
	.long	8
	.align 4
	.type	_ZN7libsumoL12TYPE_INTEGERE, @object
	.size	_ZN7libsumoL12TYPE_INTEGERE, 4
_ZN7libsumoL12TYPE_INTEGERE:
	.long	9
	.align 4
	.type	_ZN7libsumoL11TYPE_DOUBLEE, @object
	.size	_ZN7libsumoL11TYPE_DOUBLEE, 4
_ZN7libsumoL11TYPE_DOUBLEE:
	.long	11
	.align 4
	.type	_ZN7libsumoL11TYPE_STRINGE, @object
	.size	_ZN7libsumoL11TYPE_STRINGE, 4
_ZN7libsumoL11TYPE_STRINGE:
	.long	12
	.align 4
	.type	_ZN7libsumoL15TYPE_STRINGLISTE, @object
	.size	_ZN7libsumoL15TYPE_STRINGLISTE, 4
_ZN7libsumoL15TYPE_STRINGLISTE:
	.long	14
	.align 4
	.type	_ZN7libsumoL13TYPE_COMPOUNDE, @object
	.size	_ZN7libsumoL13TYPE_COMPOUNDE, 4
_ZN7libsumoL13TYPE_COMPOUNDE:
	.long	15
	.align 4
	.type	_ZN7libsumoL15TYPE_DOUBLELISTE, @object
	.size	_ZN7libsumoL15TYPE_DOUBLELISTE, 4
_ZN7libsumoL15TYPE_DOUBLELISTE:
	.long	16
	.align 4
	.type	_ZN7libsumoL10TYPE_COLORE, @object
	.size	_ZN7libsumoL10TYPE_COLORE, 4
_ZN7libsumoL10TYPE_COLORE:
	.long	17
	.align 4
	.type	_ZN7libsumoL8RTYPE_OKE, @object
	.size	_ZN7libsumoL8RTYPE_OKE, 4
_ZN7libsumoL8RTYPE_OKE:
	.zero	4
	.align 4
	.type	_ZN7libsumoL20RTYPE_NOTIMPLEMENTEDE, @object
	.size	_ZN7libsumoL20RTYPE_NOTIMPLEMENTEDE, 4
_ZN7libsumoL20RTYPE_NOTIMPLEMENTEDE:
	.long	1
	.align 4
	.type	_ZN7libsumoL9RTYPE_ERRE, @object
	.size	_ZN7libsumoL9RTYPE_ERRE, 4
_ZN7libsumoL9RTYPE_ERRE:
	.long	255
	.align 8
	.type	_ZN7libsumoL20INVALID_DOUBLE_VALUEE, @object
	.size	_ZN7libsumoL20INVALID_DOUBLE_VALUEE, 8
_ZN7libsumoL20INVALID_DOUBLE_VALUEE:
	.long	0
	.long	-1043333120
	.align 4
	.type	_ZN7libsumoL17INVALID_INT_VALUEE, @object
	.size	_ZN7libsumoL17INVALID_INT_VALUEE, 4
_ZN7libsumoL17INVALID_INT_VALUEE:
	.long	-1073741824
	.align 4
	.type	_ZN7libsumoL9MAX_ORDERE, @object
	.size	_ZN7libsumoL9MAX_ORDERE, 4
_ZN7libsumoL9MAX_ORDERE:
	.long	1073741824
	.align 4
	.type	_ZN7libsumoL19DEFAULT_NUM_RETRIESE, @object
	.size	_ZN7libsumoL19DEFAULT_NUM_RETRIESE, 4
_ZN7libsumoL19DEFAULT_NUM_RETRIESE:
	.long	60
	.align 4
	.type	_ZN7libsumoL15REQUEST_AIRDISTE, @object
	.size	_ZN7libsumoL15REQUEST_AIRDISTE, 4
_ZN7libsumoL15REQUEST_AIRDISTE:
	.zero	4
	.align 4
	.type	_ZN7libsumoL19REQUEST_DRIVINGDISTE, @object
	.size	_ZN7libsumoL19REQUEST_DRIVINGDISTE, 4
_ZN7libsumoL19REQUEST_DRIVINGDISTE:
	.long	1
	.align 4
	.type	_ZN7libsumoL15REMOVE_TELEPORTE, @object
	.size	_ZN7libsumoL15REMOVE_TELEPORTE, 4
_ZN7libsumoL15REMOVE_TELEPORTE:
	.zero	4
	.align 4
	.type	_ZN7libsumoL14REMOVE_PARKINGE, @object
	.size	_ZN7libsumoL14REMOVE_PARKINGE, 4
_ZN7libsumoL14REMOVE_PARKINGE:
	.long	1
	.align 4
	.type	_ZN7libsumoL14REMOVE_ARRIVEDE, @object
	.size	_ZN7libsumoL14REMOVE_ARRIVEDE, 4
_ZN7libsumoL14REMOVE_ARRIVEDE:
	.long	2
	.align 4
	.type	_ZN7libsumoL16REMOVE_VAPORIZEDE, @object
	.size	_ZN7libsumoL16REMOVE_VAPORIZEDE, 4
_ZN7libsumoL16REMOVE_VAPORIZEDE:
	.long	3
	.align 4
	.type	_ZN7libsumoL23REMOVE_TELEPORT_ARRIVEDE, @object
	.size	_ZN7libsumoL23REMOVE_TELEPORT_ARRIVEDE, 4
_ZN7libsumoL23REMOVE_TELEPORT_ARRIVEDE:
	.long	4
	.align 4
	.type	_ZN7libsumoL14MOVE_AUTOMATICE, @object
	.size	_ZN7libsumoL14MOVE_AUTOMATICE, 4
_ZN7libsumoL14MOVE_AUTOMATICE:
	.zero	4
	.align 4
	.type	_ZN7libsumoL13MOVE_TELEPORTE, @object
	.size	_ZN7libsumoL13MOVE_TELEPORTE, 4
_ZN7libsumoL13MOVE_TELEPORTE:
	.long	1
	.align 4
	.type	_ZN7libsumoL11MOVE_NORMALE, @object
	.size	_ZN7libsumoL11MOVE_NORMALE, 4
_ZN7libsumoL11MOVE_NORMALE:
	.long	2
	.align 4
	.type	_ZN7libsumoL24STAGE_WAITING_FOR_DEPARTE, @object
	.size	_ZN7libsumoL24STAGE_WAITING_FOR_DEPARTE, 4
_ZN7libsumoL24STAGE_WAITING_FOR_DEPARTE:
	.zero	4
	.align 4
	.type	_ZN7libsumoL13STAGE_WAITINGE, @object
	.size	_ZN7libsumoL13STAGE_WAITINGE, 4
_ZN7libsumoL13STAGE_WAITINGE:
	.long	1
	.align 4
	.type	_ZN7libsumoL13STAGE_WALKINGE, @object
	.size	_ZN7libsumoL13STAGE_WALKINGE, 4
_ZN7libsumoL13STAGE_WALKINGE:
	.long	2
	.align 4
	.type	_ZN7libsumoL13STAGE_DRIVINGE, @object
	.size	_ZN7libsumoL13STAGE_DRIVINGE, 4
_ZN7libsumoL13STAGE_DRIVINGE:
	.long	3
	.align 4
	.type	_ZN7libsumoL12STAGE_ACCESSE, @object
	.size	_ZN7libsumoL12STAGE_ACCESSE, 4
_ZN7libsumoL12STAGE_ACCESSE:
	.long	4
	.align 4
	.type	_ZN7libsumoL10STAGE_TRIPE, @object
	.size	_ZN7libsumoL10STAGE_TRIPE, 4
_ZN7libsumoL10STAGE_TRIPE:
	.long	5
	.align 4
	.type	_ZN7libsumoL14STAGE_TRANSHIPE, @object
	.size	_ZN7libsumoL14STAGE_TRANSHIPE, 4
_ZN7libsumoL14STAGE_TRANSHIPE:
	.long	6
	.align 4
	.type	_ZN7libsumoL12STOP_DEFAULTE, @object
	.size	_ZN7libsumoL12STOP_DEFAULTE, 4
_ZN7libsumoL12STOP_DEFAULTE:
	.zero	4
	.align 4
	.type	_ZN7libsumoL12STOP_PARKINGE, @object
	.size	_ZN7libsumoL12STOP_PARKINGE, 4
_ZN7libsumoL12STOP_PARKINGE:
	.long	1
	.align 4
	.type	_ZN7libsumoL14STOP_TRIGGEREDE, @object
	.size	_ZN7libsumoL14STOP_TRIGGEREDE, 4
_ZN7libsumoL14STOP_TRIGGEREDE:
	.long	2
	.align 4
	.type	_ZN7libsumoL24STOP_CONTAINER_TRIGGEREDE, @object
	.size	_ZN7libsumoL24STOP_CONTAINER_TRIGGEREDE, 4
_ZN7libsumoL24STOP_CONTAINER_TRIGGEREDE:
	.long	4
	.align 4
	.type	_ZN7libsumoL13STOP_BUS_STOPE, @object
	.size	_ZN7libsumoL13STOP_BUS_STOPE, 4
_ZN7libsumoL13STOP_BUS_STOPE:
	.long	8
	.align 4
	.type	_ZN7libsumoL19STOP_CONTAINER_STOPE, @object
	.size	_ZN7libsumoL19STOP_CONTAINER_STOPE, 4
_ZN7libsumoL19STOP_CONTAINER_STOPE:
	.long	16
	.align 4
	.type	_ZN7libsumoL21STOP_CHARGING_STATIONE, @object
	.size	_ZN7libsumoL21STOP_CHARGING_STATIONE, 4
_ZN7libsumoL21STOP_CHARGING_STATIONE:
	.long	32
	.align 4
	.type	_ZN7libsumoL17STOP_PARKING_AREAE, @object
	.size	_ZN7libsumoL17STOP_PARKING_AREAE, 4
_ZN7libsumoL17STOP_PARKING_AREAE:
	.long	64
	.align 4
	.type	_ZN7libsumoL18STOP_OVERHEAD_WIREE, @object
	.size	_ZN7libsumoL18STOP_OVERHEAD_WIREE, 4
_ZN7libsumoL18STOP_OVERHEAD_WIREE:
	.long	128
	.align 4
	.type	_ZN7libsumoL20DEPARTFLAG_TRIGGEREDE, @object
	.size	_ZN7libsumoL20DEPARTFLAG_TRIGGEREDE, 4
_ZN7libsumoL20DEPARTFLAG_TRIGGEREDE:
	.long	-1
	.align 4
	.type	_ZN7libsumoL30DEPARTFLAG_CONTAINER_TRIGGEREDE, @object
	.size	_ZN7libsumoL30DEPARTFLAG_CONTAINER_TRIGGEREDE, 4
_ZN7libsumoL30DEPARTFLAG_CONTAINER_TRIGGEREDE:
	.long	-2
	.align 4
	.type	_ZN7libsumoL14DEPARTFLAG_NOWE, @object
	.size	_ZN7libsumoL14DEPARTFLAG_NOWE, 4
_ZN7libsumoL14DEPARTFLAG_NOWE:
	.long	-3
	.align 4
	.type	_ZN7libsumoL16DEPARTFLAG_SPLITE, @object
	.size	_ZN7libsumoL16DEPARTFLAG_SPLITE, 4
_ZN7libsumoL16DEPARTFLAG_SPLITE:
	.long	-4
	.align 4
	.type	_ZN7libsumoL16DEPARTFLAG_BEGINE, @object
	.size	_ZN7libsumoL16DEPARTFLAG_BEGINE, 4
_ZN7libsumoL16DEPARTFLAG_BEGINE:
	.long	-5
	.align 4
	.type	_ZN7libsumoL23DEPARTFLAG_SPEED_RANDOME, @object
	.size	_ZN7libsumoL23DEPARTFLAG_SPEED_RANDOME, 4
_ZN7libsumoL23DEPARTFLAG_SPEED_RANDOME:
	.long	-2
	.align 4
	.type	_ZN7libsumoL20DEPARTFLAG_SPEED_MAXE, @object
	.size	_ZN7libsumoL20DEPARTFLAG_SPEED_MAXE, 4
_ZN7libsumoL20DEPARTFLAG_SPEED_MAXE:
	.long	-3
	.align 4
	.type	_ZN7libsumoL22DEPARTFLAG_LANE_RANDOME, @object
	.size	_ZN7libsumoL22DEPARTFLAG_LANE_RANDOME, 4
_ZN7libsumoL22DEPARTFLAG_LANE_RANDOME:
	.long	-2
	.align 4
	.type	_ZN7libsumoL20DEPARTFLAG_LANE_FREEE, @object
	.size	_ZN7libsumoL20DEPARTFLAG_LANE_FREEE, 4
_ZN7libsumoL20DEPARTFLAG_LANE_FREEE:
	.long	-3
	.align 4
	.type	_ZN7libsumoL28DEPARTFLAG_LANE_ALLOWED_FREEE, @object
	.size	_ZN7libsumoL28DEPARTFLAG_LANE_ALLOWED_FREEE, 4
_ZN7libsumoL28DEPARTFLAG_LANE_ALLOWED_FREEE:
	.long	-4
	.align 4
	.type	_ZN7libsumoL25DEPARTFLAG_LANE_BEST_FREEE, @object
	.size	_ZN7libsumoL25DEPARTFLAG_LANE_BEST_FREEE, 4
_ZN7libsumoL25DEPARTFLAG_LANE_BEST_FREEE:
	.long	-5
	.align 4
	.type	_ZN7libsumoL29DEPARTFLAG_LANE_FIRST_ALLOWEDE, @object
	.size	_ZN7libsumoL29DEPARTFLAG_LANE_FIRST_ALLOWEDE, 4
_ZN7libsumoL29DEPARTFLAG_LANE_FIRST_ALLOWEDE:
	.long	-6
	.align 4
	.type	_ZN7libsumoL21DEPARTFLAG_POS_RANDOME, @object
	.size	_ZN7libsumoL21DEPARTFLAG_POS_RANDOME, 4
_ZN7libsumoL21DEPARTFLAG_POS_RANDOME:
	.long	-2
	.align 4
	.type	_ZN7libsumoL19DEPARTFLAG_POS_FREEE, @object
	.size	_ZN7libsumoL19DEPARTFLAG_POS_FREEE, 4
_ZN7libsumoL19DEPARTFLAG_POS_FREEE:
	.long	-3
	.align 4
	.type	_ZN7libsumoL19DEPARTFLAG_POS_BASEE, @object
	.size	_ZN7libsumoL19DEPARTFLAG_POS_BASEE, 4
_ZN7libsumoL19DEPARTFLAG_POS_BASEE:
	.long	-4
	.align 4
	.type	_ZN7libsumoL19DEPARTFLAG_POS_LASTE, @object
	.size	_ZN7libsumoL19DEPARTFLAG_POS_LASTE, 4
_ZN7libsumoL19DEPARTFLAG_POS_LASTE:
	.long	-5
	.align 4
	.type	_ZN7libsumoL26DEPARTFLAG_POS_RANDOM_FREEE, @object
	.size	_ZN7libsumoL26DEPARTFLAG_POS_RANDOM_FREEE, 4
_ZN7libsumoL26DEPARTFLAG_POS_RANDOM_FREEE:
	.long	-6
	.align 4
	.type	_ZN7libsumoL24ARRIVALFLAG_LANE_CURRENTE, @object
	.size	_ZN7libsumoL24ARRIVALFLAG_LANE_CURRENTE, 4
_ZN7libsumoL24ARRIVALFLAG_LANE_CURRENTE:
	.long	-2
	.align 4
	.type	_ZN7libsumoL25ARRIVALFLAG_SPEED_CURRENTE, @object
	.size	_ZN7libsumoL25ARRIVALFLAG_SPEED_CURRENTE, 4
_ZN7libsumoL25ARRIVALFLAG_SPEED_CURRENTE:
	.long	-2
	.align 4
	.type	_ZN7libsumoL22ARRIVALFLAG_POS_RANDOME, @object
	.size	_ZN7libsumoL22ARRIVALFLAG_POS_RANDOME, 4
_ZN7libsumoL22ARRIVALFLAG_POS_RANDOME:
	.long	-2
	.align 4
	.type	_ZN7libsumoL19ARRIVALFLAG_POS_MAXE, @object
	.size	_ZN7libsumoL19ARRIVALFLAG_POS_MAXE, 4
_ZN7libsumoL19ARRIVALFLAG_POS_MAXE:
	.long	-3
	.align 4
	.type	_ZN7libsumoL20ROUTING_MODE_DEFAULTE, @object
	.size	_ZN7libsumoL20ROUTING_MODE_DEFAULTE, 4
_ZN7libsumoL20ROUTING_MODE_DEFAULTE:
	.zero	4
	.align 4
	.type	_ZN7libsumoL23ROUTING_MODE_AGGREGATEDE, @object
	.size	_ZN7libsumoL23ROUTING_MODE_AGGREGATEDE, 4
_ZN7libsumoL23ROUTING_MODE_AGGREGATEDE:
	.long	1
	.align 4
	.type	_ZN7libsumoL19ROUTING_MODE_EFFORTE, @object
	.size	_ZN7libsumoL19ROUTING_MODE_EFFORTE, 4
_ZN7libsumoL19ROUTING_MODE_EFFORTE:
	.long	2
	.align 4
	.type	_ZN7libsumoL21ROUTING_MODE_COMBINEDE, @object
	.size	_ZN7libsumoL21ROUTING_MODE_COMBINEDE, 4
_ZN7libsumoL21ROUTING_MODE_COMBINEDE:
	.long	3
	.align 4
	.type	_ZN7libsumoL30ROUTING_MODE_AGGREGATED_CUSTOME, @object
	.size	_ZN7libsumoL30ROUTING_MODE_AGGREGATED_CUSTOME, 4
_ZN7libsumoL30ROUTING_MODE_AGGREGATED_CUSTOME:
	.long	4
	.align 4
	.type	_ZN7libsumoL24TRAFFICLIGHT_TYPE_STATICE, @object
	.size	_ZN7libsumoL24TRAFFICLIGHT_TYPE_STATICE, 4
_ZN7libsumoL24TRAFFICLIGHT_TYPE_STATICE:
	.zero	4
	.align 4
	.type	_ZN7libsumoL26TRAFFICLIGHT_TYPE_ACTUATEDE, @object
	.size	_ZN7libsumoL26TRAFFICLIGHT_TYPE_ACTUATEDE, 4
_ZN7libsumoL26TRAFFICLIGHT_TYPE_ACTUATEDE:
	.long	3
	.align 4
	.type	_ZN7libsumoL28TRAFFICLIGHT_TYPE_DELAYBASEDE, @object
	.size	_ZN7libsumoL28TRAFFICLIGHT_TYPE_DELAYBASEDE, 4
_ZN7libsumoL28TRAFFICLIGHT_TYPE_DELAYBASEDE:
	.long	4
	.align 4
	.type	_ZN7libsumoL15LANECHANGE_LEFTE, @object
	.size	_ZN7libsumoL15LANECHANGE_LEFTE, 4
_ZN7libsumoL15LANECHANGE_LEFTE:
	.long	1
	.align 4
	.type	_ZN7libsumoL16LANECHANGE_RIGHTE, @object
	.size	_ZN7libsumoL16LANECHANGE_RIGHTE, 4
_ZN7libsumoL16LANECHANGE_RIGHTE:
	.long	-1
	.align 4
	.type	_ZN7libsumoL16FILTER_TYPE_NONEE, @object
	.size	_ZN7libsumoL16FILTER_TYPE_NONEE, 4
_ZN7libsumoL16FILTER_TYPE_NONEE:
	.zero	4
	.align 4
	.type	_ZN7libsumoL17FILTER_TYPE_LANESE, @object
	.size	_ZN7libsumoL17FILTER_TYPE_LANESE, 4
_ZN7libsumoL17FILTER_TYPE_LANESE:
	.long	1
	.align 4
	.type	_ZN7libsumoL22FILTER_TYPE_NOOPPOSITEE, @object
	.size	_ZN7libsumoL22FILTER_TYPE_NOOPPOSITEE, 4
_ZN7libsumoL22FILTER_TYPE_NOOPPOSITEE:
	.long	2
	.align 4
	.type	_ZN7libsumoL27FILTER_TYPE_DOWNSTREAM_DISTE, @object
	.size	_ZN7libsumoL27FILTER_TYPE_DOWNSTREAM_DISTE, 4
_ZN7libsumoL27FILTER_TYPE_DOWNSTREAM_DISTE:
	.long	3
	.align 4
	.type	_ZN7libsumoL25FILTER_TYPE_UPSTREAM_DISTE, @object
	.size	_ZN7libsumoL25FILTER_TYPE_UPSTREAM_DISTE, 4
_ZN7libsumoL25FILTER_TYPE_UPSTREAM_DISTE:
	.long	4
	.align 4
	.type	_ZN7libsumoL23FILTER_TYPE_LEAD_FOLLOWE, @object
	.size	_ZN7libsumoL23FILTER_TYPE_LEAD_FOLLOWE, 4
_ZN7libsumoL23FILTER_TYPE_LEAD_FOLLOWE:
	.long	5
	.align 4
	.type	_ZN7libsumoL16FILTER_TYPE_TURNE, @object
	.size	_ZN7libsumoL16FILTER_TYPE_TURNE, 4
_ZN7libsumoL16FILTER_TYPE_TURNE:
	.long	7
	.align 4
	.type	_ZN7libsumoL18FILTER_TYPE_VCLASSE, @object
	.size	_ZN7libsumoL18FILTER_TYPE_VCLASSE, 4
_ZN7libsumoL18FILTER_TYPE_VCLASSE:
	.long	8
	.align 4
	.type	_ZN7libsumoL17FILTER_TYPE_VTYPEE, @object
	.size	_ZN7libsumoL17FILTER_TYPE_VTYPEE, 4
_ZN7libsumoL17FILTER_TYPE_VTYPEE:
	.long	9
	.align 4
	.type	_ZN7libsumoL27FILTER_TYPE_FIELD_OF_VISIONE, @object
	.size	_ZN7libsumoL27FILTER_TYPE_FIELD_OF_VISIONE, 4
_ZN7libsumoL27FILTER_TYPE_FIELD_OF_VISIONE:
	.long	10
	.align 4
	.type	_ZN7libsumoL24FILTER_TYPE_LATERAL_DISTE, @object
	.size	_ZN7libsumoL24FILTER_TYPE_LATERAL_DISTE, 4
_ZN7libsumoL24FILTER_TYPE_LATERAL_DISTE:
	.long	11
	.align 4
	.type	_ZN7libsumoL13TRACI_ID_LISTE, @object
	.size	_ZN7libsumoL13TRACI_ID_LISTE, 4
_ZN7libsumoL13TRACI_ID_LISTE:
	.zero	4
	.align 4
	.type	_ZN7libsumoL8ID_COUNTE, @object
	.size	_ZN7libsumoL8ID_COUNTE, 4
_ZN7libsumoL8ID_COUNTE:
	.long	1
	.align 4
	.type	_ZN7libsumoL32AUTOMATIC_VARIABLES_SUBSCRIPTIONE, @object
	.size	_ZN7libsumoL32AUTOMATIC_VARIABLES_SUBSCRIPTIONE, 4
_ZN7libsumoL32AUTOMATIC_VARIABLES_SUBSCRIPTIONE:
	.long	2
	.align 4
	.type	_ZN7libsumoL30AUTOMATIC_CONTEXT_SUBSCRIPTIONE, @object
	.size	_ZN7libsumoL30AUTOMATIC_CONTEXT_SUBSCRIPTIONE, 4
_ZN7libsumoL30AUTOMATIC_CONTEXT_SUBSCRIPTIONE:
	.long	3
	.align 4
	.type	_ZN7libsumoL17GENERIC_ATTRIBUTEE, @object
	.size	_ZN7libsumoL17GENERIC_ATTRIBUTEE, 4
_ZN7libsumoL17GENERIC_ATTRIBUTEE:
	.long	3
	.align 4
	.type	_ZN7libsumoL24LAST_STEP_VEHICLE_NUMBERE, @object
	.size	_ZN7libsumoL24LAST_STEP_VEHICLE_NUMBERE, 4
_ZN7libsumoL24LAST_STEP_VEHICLE_NUMBERE:
	.long	16
	.align 4
	.type	_ZN7libsumoL20LAST_STEP_MEAN_SPEEDE, @object
	.size	_ZN7libsumoL20LAST_STEP_MEAN_SPEEDE, 4
_ZN7libsumoL20LAST_STEP_MEAN_SPEEDE:
	.long	17
	.align 4
	.type	_ZN7libsumoL25LAST_STEP_VEHICLE_ID_LISTE, @object
	.size	_ZN7libsumoL25LAST_STEP_VEHICLE_ID_LISTE, 4
_ZN7libsumoL25LAST_STEP_VEHICLE_ID_LISTE:
	.long	18
	.align 4
	.type	_ZN7libsumoL19LAST_STEP_OCCUPANCYE, @object
	.size	_ZN7libsumoL19LAST_STEP_OCCUPANCYE, 4
_ZN7libsumoL19LAST_STEP_OCCUPANCYE:
	.long	19
	.align 4
	.type	_ZN7libsumoL32LAST_STEP_VEHICLE_HALTING_NUMBERE, @object
	.size	_ZN7libsumoL32LAST_STEP_VEHICLE_HALTING_NUMBERE, 4
_ZN7libsumoL32LAST_STEP_VEHICLE_HALTING_NUMBERE:
	.long	20
	.align 4
	.type	_ZN7libsumoL16LAST_STEP_LENGTHE, @object
	.size	_ZN7libsumoL16LAST_STEP_LENGTHE, 4
_ZN7libsumoL16LAST_STEP_LENGTHE:
	.long	21
	.align 4
	.type	_ZN7libsumoL30LAST_STEP_TIME_SINCE_DETECTIONE, @object
	.size	_ZN7libsumoL30LAST_STEP_TIME_SINCE_DETECTIONE, 4
_ZN7libsumoL30LAST_STEP_TIME_SINCE_DETECTIONE:
	.long	22
	.align 4
	.type	_ZN7libsumoL22LAST_STEP_VEHICLE_DATAE, @object
	.size	_ZN7libsumoL22LAST_STEP_VEHICLE_DATAE, 4
_ZN7libsumoL22LAST_STEP_VEHICLE_DATAE:
	.long	23
	.align 4
	.type	_ZN7libsumoL22VAR_INTERVAL_OCCUPANCYE, @object
	.size	_ZN7libsumoL22VAR_INTERVAL_OCCUPANCYE, 4
_ZN7libsumoL22VAR_INTERVAL_OCCUPANCYE:
	.long	35
	.align 4
	.type	_ZN7libsumoL18VAR_INTERVAL_SPEEDE, @object
	.size	_ZN7libsumoL18VAR_INTERVAL_SPEEDE, 4
_ZN7libsumoL18VAR_INTERVAL_SPEEDE:
	.long	36
	.align 4
	.type	_ZN7libsumoL19VAR_INTERVAL_NUMBERE, @object
	.size	_ZN7libsumoL19VAR_INTERVAL_NUMBERE, 4
_ZN7libsumoL19VAR_INTERVAL_NUMBERE:
	.long	37
	.align 4
	.type	_ZN7libsumoL16VAR_INTERVAL_IDSE, @object
	.size	_ZN7libsumoL16VAR_INTERVAL_IDSE, 4
_ZN7libsumoL16VAR_INTERVAL_IDSE:
	.long	38
	.align 4
	.type	_ZN7libsumoL27VAR_LAST_INTERVAL_OCCUPANCYE, @object
	.size	_ZN7libsumoL27VAR_LAST_INTERVAL_OCCUPANCYE, 4
_ZN7libsumoL27VAR_LAST_INTERVAL_OCCUPANCYE:
	.long	39
	.align 4
	.type	_ZN7libsumoL23VAR_LAST_INTERVAL_SPEEDE, @object
	.size	_ZN7libsumoL23VAR_LAST_INTERVAL_SPEEDE, 4
_ZN7libsumoL23VAR_LAST_INTERVAL_SPEEDE:
	.long	40
	.align 4
	.type	_ZN7libsumoL24VAR_LAST_INTERVAL_NUMBERE, @object
	.size	_ZN7libsumoL24VAR_LAST_INTERVAL_NUMBERE, 4
_ZN7libsumoL24VAR_LAST_INTERVAL_NUMBERE:
	.long	41
	.align 4
	.type	_ZN7libsumoL21VAR_LAST_INTERVAL_IDSE, @object
	.size	_ZN7libsumoL21VAR_LAST_INTERVAL_IDSE, 4
_ZN7libsumoL21VAR_LAST_INTERVAL_IDSE:
	.long	42
	.align 4
	.type	_ZN7libsumoL18JAM_LENGTH_VEHICLEE, @object
	.size	_ZN7libsumoL18JAM_LENGTH_VEHICLEE, 4
_ZN7libsumoL18JAM_LENGTH_VEHICLEE:
	.long	24
	.align 4
	.type	_ZN7libsumoL17JAM_LENGTH_METERSE, @object
	.size	_ZN7libsumoL17JAM_LENGTH_METERSE, 4
_ZN7libsumoL17JAM_LENGTH_METERSE:
	.long	25
	.align 4
	.type	_ZN7libsumoL34VAR_INTERVAL_MAX_JAM_LENGTH_METERSE, @object
	.size	_ZN7libsumoL34VAR_INTERVAL_MAX_JAM_LENGTH_METERSE, 4
_ZN7libsumoL34VAR_INTERVAL_MAX_JAM_LENGTH_METERSE:
	.long	50
	.align 4
	.type	_ZN7libsumoL39VAR_LAST_INTERVAL_MAX_JAM_LENGTH_METERSE, @object
	.size	_ZN7libsumoL39VAR_LAST_INTERVAL_MAX_JAM_LENGTH_METERSE, 4
_ZN7libsumoL39VAR_LAST_INTERVAL_MAX_JAM_LENGTH_METERSE:
	.long	51
	.align 4
	.type	_ZN7libsumoL28VAR_LAST_INTERVAL_TRAVELTIMEE, @object
	.size	_ZN7libsumoL28VAR_LAST_INTERVAL_TRAVELTIMEE, 4
_ZN7libsumoL28VAR_LAST_INTERVAL_TRAVELTIMEE:
	.long	88
	.align 4
	.type	_ZN7libsumoL37VAR_LAST_INTERVAL_MEAN_HALTING_NUMBERE, @object
	.size	_ZN7libsumoL37VAR_LAST_INTERVAL_MEAN_HALTING_NUMBERE, 4
_ZN7libsumoL37VAR_LAST_INTERVAL_MEAN_HALTING_NUMBERE:
	.long	32
	.align 4
	.type	_ZN7libsumoL32VAR_LAST_INTERVAL_VEHICLE_NUMBERE, @object
	.size	_ZN7libsumoL32VAR_LAST_INTERVAL_VEHICLE_NUMBERE, 4
_ZN7libsumoL32VAR_LAST_INTERVAL_VEHICLE_NUMBERE:
	.long	33
	.align 4
	.type	_ZN7libsumoL21VAR_VIRTUAL_DETECTIONE, @object
	.size	_ZN7libsumoL21VAR_VIRTUAL_DETECTIONE, 4
_ZN7libsumoL21VAR_VIRTUAL_DETECTIONE:
	.long	34
	.align 4
	.type	_ZN7libsumoL24LAST_STEP_PERSON_ID_LISTE, @object
	.size	_ZN7libsumoL24LAST_STEP_PERSON_ID_LISTE, 4
_ZN7libsumoL24LAST_STEP_PERSON_ID_LISTE:
	.long	26
	.align 4
	.type	_ZN7libsumoL8VAR_NAMEE, @object
	.size	_ZN7libsumoL8VAR_NAMEE, 4
_ZN7libsumoL8VAR_NAMEE:
	.long	27
	.align 4
	.type	_ZN7libsumoL16VAR_FOLLOW_SPEEDE, @object
	.size	_ZN7libsumoL16VAR_FOLLOW_SPEEDE, 4
_ZN7libsumoL16VAR_FOLLOW_SPEEDE:
	.long	28
	.align 4
	.type	_ZN7libsumoL14VAR_STOP_SPEEDE, @object
	.size	_ZN7libsumoL14VAR_STOP_SPEEDE, 4
_ZN7libsumoL14VAR_STOP_SPEEDE:
	.long	29
	.align 4
	.type	_ZN7libsumoL14VAR_SECURE_GAPE, @object
	.size	_ZN7libsumoL14VAR_SECURE_GAPE, 4
_ZN7libsumoL14VAR_SECURE_GAPE:
	.long	30
	.align 4
	.type	_ZN7libsumoL14VAR_STOP_DELAYE, @object
	.size	_ZN7libsumoL14VAR_STOP_DELAYE, 4
_ZN7libsumoL14VAR_STOP_DELAYE:
	.long	31
	.align 4
	.type	_ZN7libsumoL21VAR_STOP_ARRIVALDELAYE, @object
	.size	_ZN7libsumoL21VAR_STOP_ARRIVALDELAYE, 4
_ZN7libsumoL21VAR_STOP_ARRIVALDELAYE:
	.long	34
	.align 4
	.type	_ZN7libsumoL12VAR_TIMELOSSE, @object
	.size	_ZN7libsumoL12VAR_TIMELOSSE, 4
_ZN7libsumoL12VAR_TIMELOSSE:
	.long	140
	.align 4
	.type	_ZN7libsumoL9VAR_BEGINE, @object
	.size	_ZN7libsumoL9VAR_BEGINE, 4
_ZN7libsumoL9VAR_BEGINE:
	.long	28
	.align 4
	.type	_ZN7libsumoL7VAR_ENDE, @object
	.size	_ZN7libsumoL7VAR_ENDE, 4
_ZN7libsumoL7VAR_ENDE:
	.long	29
	.align 4
	.type	_ZN7libsumoL10VAR_VTYPESE, @object
	.size	_ZN7libsumoL10VAR_VTYPESE, 4
_ZN7libsumoL10VAR_VTYPESE:
	.long	30
	.align 4
	.type	_ZN7libsumoL15VAR_VEHSPERHOURE, @object
	.size	_ZN7libsumoL15VAR_VEHSPERHOURE, 4
_ZN7libsumoL15VAR_VEHSPERHOURE:
	.long	19
	.align 4
	.type	_ZN7libsumoL10VAR_PASSEDE, @object
	.size	_ZN7libsumoL10VAR_PASSEDE, 4
_ZN7libsumoL10VAR_PASSEDE:
	.long	20
	.align 4
	.type	_ZN7libsumoL12VAR_INSERTEDE, @object
	.size	_ZN7libsumoL12VAR_INSERTEDE, 4
_ZN7libsumoL12VAR_INSERTEDE:
	.long	21
	.align 4
	.type	_ZN7libsumoL11VAR_REMOVEDE, @object
	.size	_ZN7libsumoL11VAR_REMOVEDE, 4
_ZN7libsumoL11VAR_REMOVEDE:
	.long	22
	.align 4
	.type	_ZN7libsumoL15VAR_ROUTE_PROBEE, @object
	.size	_ZN7libsumoL15VAR_ROUTE_PROBEE, 4
_ZN7libsumoL15VAR_ROUTE_PROBEE:
	.long	23
	.align 4
	.type	_ZN7libsumoL12CMD_SET_FLOWE, @object
	.size	_ZN7libsumoL12CMD_SET_FLOWE, 4
_ZN7libsumoL12CMD_SET_FLOWE:
	.long	24
	.align 4
	.type	_ZN7libsumoL25TL_RED_YELLOW_GREEN_STATEE, @object
	.size	_ZN7libsumoL25TL_RED_YELLOW_GREEN_STATEE, 4
_ZN7libsumoL25TL_RED_YELLOW_GREEN_STATEE:
	.long	32
	.align 4
	.type	_ZN7libsumoL14TL_PHASE_INDEXE, @object
	.size	_ZN7libsumoL14TL_PHASE_INDEXE, 4
_ZN7libsumoL14TL_PHASE_INDEXE:
	.long	34
	.align 4
	.type	_ZN7libsumoL10TL_PROGRAME, @object
	.size	_ZN7libsumoL10TL_PROGRAME, 4
_ZN7libsumoL10TL_PROGRAME:
	.long	35
	.align 4
	.type	_ZN7libsumoL17TL_PHASE_DURATIONE, @object
	.size	_ZN7libsumoL17TL_PHASE_DURATIONE, 4
_ZN7libsumoL17TL_PHASE_DURATIONE:
	.long	36
	.align 4
	.type	_ZN7libsumoL20TL_BLOCKING_VEHICLESE, @object
	.size	_ZN7libsumoL20TL_BLOCKING_VEHICLESE, 4
_ZN7libsumoL20TL_BLOCKING_VEHICLESE:
	.long	37
	.align 4
	.type	_ZN7libsumoL19TL_CONTROLLED_LANESE, @object
	.size	_ZN7libsumoL19TL_CONTROLLED_LANESE, 4
_ZN7libsumoL19TL_CONTROLLED_LANESE:
	.long	38
	.align 4
	.type	_ZN7libsumoL19TL_CONTROLLED_LINKSE, @object
	.size	_ZN7libsumoL19TL_CONTROLLED_LINKSE, 4
_ZN7libsumoL19TL_CONTROLLED_LINKSE:
	.long	39
	.align 4
	.type	_ZN7libsumoL16TL_CURRENT_PHASEE, @object
	.size	_ZN7libsumoL16TL_CURRENT_PHASEE, 4
_ZN7libsumoL16TL_CURRENT_PHASEE:
	.long	40
	.align 4
	.type	_ZN7libsumoL18TL_CURRENT_PROGRAME, @object
	.size	_ZN7libsumoL18TL_CURRENT_PROGRAME, 4
_ZN7libsumoL18TL_CURRENT_PROGRAME:
	.long	41
	.align 4
	.type	_ZN7libsumoL17TL_RIVAL_VEHICLESE, @object
	.size	_ZN7libsumoL17TL_RIVAL_VEHICLESE, 4
_ZN7libsumoL17TL_RIVAL_VEHICLESE:
	.long	48
	.align 4
	.type	_ZN7libsumoL20TL_PRIORITY_VEHICLESE, @object
	.size	_ZN7libsumoL20TL_PRIORITY_VEHICLESE, 4
_ZN7libsumoL20TL_PRIORITY_VEHICLESE:
	.long	49
	.align 4
	.type	_ZN7libsumoL23TL_CONTROLLED_JUNCTIONSE, @object
	.size	_ZN7libsumoL23TL_CONTROLLED_JUNCTIONSE, 4
_ZN7libsumoL23TL_CONTROLLED_JUNCTIONSE:
	.long	42
	.align 4
	.type	_ZN7libsumoL26TL_COMPLETE_DEFINITION_RYGE, @object
	.size	_ZN7libsumoL26TL_COMPLETE_DEFINITION_RYGE, 4
_ZN7libsumoL26TL_COMPLETE_DEFINITION_RYGE:
	.long	43
	.align 4
	.type	_ZN7libsumoL23TL_COMPLETE_PROGRAM_RYGE, @object
	.size	_ZN7libsumoL23TL_COMPLETE_PROGRAM_RYGE, 4
_ZN7libsumoL23TL_COMPLETE_PROGRAM_RYGE:
	.long	44
	.align 4
	.type	_ZN7libsumoL14TL_NEXT_SWITCHE, @object
	.size	_ZN7libsumoL14TL_NEXT_SWITCHE, 4
_ZN7libsumoL14TL_NEXT_SWITCHE:
	.long	45
	.align 4
	.type	_ZN7libsumoL17TL_EXTERNAL_STATEE, @object
	.size	_ZN7libsumoL17TL_EXTERNAL_STATEE, 4
_ZN7libsumoL17TL_EXTERNAL_STATEE:
	.long	46
	.align 4
	.type	_ZN7libsumoL13TL_CONSTRAINTE, @object
	.size	_ZN7libsumoL13TL_CONSTRAINTE, 4
_ZN7libsumoL13TL_CONSTRAINTE:
	.long	47
	.align 4
	.type	_ZN7libsumoL18TL_CONSTRAINT_SWAPE, @object
	.size	_ZN7libsumoL18TL_CONSTRAINT_SWAPE, 4
_ZN7libsumoL18TL_CONSTRAINT_SWAPE:
	.long	50
	.align 4
	.type	_ZN7libsumoL19TL_CONSTRAINT_BYFOEE, @object
	.size	_ZN7libsumoL19TL_CONSTRAINT_BYFOEE, 4
_ZN7libsumoL19TL_CONSTRAINT_BYFOEE:
	.long	52
	.align 4
	.type	_ZN7libsumoL20TL_CONSTRAINT_REMOVEE, @object
	.size	_ZN7libsumoL20TL_CONSTRAINT_REMOVEE, 4
_ZN7libsumoL20TL_CONSTRAINT_REMOVEE:
	.long	53
	.align 4
	.type	_ZN7libsumoL20TL_CONSTRAINT_UPDATEE, @object
	.size	_ZN7libsumoL20TL_CONSTRAINT_UPDATEE, 4
_ZN7libsumoL20TL_CONSTRAINT_UPDATEE:
	.long	54
	.align 4
	.type	_ZN7libsumoL17TL_CONSTRAINT_ADDE, @object
	.size	_ZN7libsumoL17TL_CONSTRAINT_ADDE, 4
_ZN7libsumoL17TL_CONSTRAINT_ADDE:
	.long	55
	.align 4
	.type	_ZN7libsumoL16LANE_LINK_NUMBERE, @object
	.size	_ZN7libsumoL16LANE_LINK_NUMBERE, 4
_ZN7libsumoL16LANE_LINK_NUMBERE:
	.long	48
	.align 4
	.type	_ZN7libsumoL12LANE_EDGE_IDE, @object
	.size	_ZN7libsumoL12LANE_EDGE_IDE, 4
_ZN7libsumoL12LANE_EDGE_IDE:
	.long	49
	.align 4
	.type	_ZN7libsumoL10LANE_LINKSE, @object
	.size	_ZN7libsumoL10LANE_LINKSE, 4
_ZN7libsumoL10LANE_LINKSE:
	.long	51
	.align 4
	.type	_ZN7libsumoL12LANE_ALLOWEDE, @object
	.size	_ZN7libsumoL12LANE_ALLOWEDE, 4
_ZN7libsumoL12LANE_ALLOWEDE:
	.long	52
	.align 4
	.type	_ZN7libsumoL15LANE_DISALLOWEDE, @object
	.size	_ZN7libsumoL15LANE_DISALLOWEDE, 4
_ZN7libsumoL15LANE_DISALLOWEDE:
	.long	53
	.align 4
	.type	_ZN7libsumoL12LANE_CHANGESE, @object
	.size	_ZN7libsumoL12LANE_CHANGESE, 4
_ZN7libsumoL12LANE_CHANGESE:
	.long	60
	.align 4
	.type	_ZN7libsumoL8VAR_FOESE, @object
	.size	_ZN7libsumoL8VAR_FOESE, 4
_ZN7libsumoL8VAR_FOESE:
	.long	55
	.align 4
	.type	_ZN7libsumoL9VAR_SLOPEE, @object
	.size	_ZN7libsumoL9VAR_SLOPEE, 4
_ZN7libsumoL9VAR_SLOPEE:
	.long	54
	.align 4
	.type	_ZN7libsumoL9VAR_SPEEDE, @object
	.size	_ZN7libsumoL9VAR_SPEEDE, 4
_ZN7libsumoL9VAR_SPEEDE:
	.long	64
	.align 4
	.type	_ZN7libsumoL14VAR_PREV_SPEEDE, @object
	.size	_ZN7libsumoL14VAR_PREV_SPEEDE, 4
_ZN7libsumoL14VAR_PREV_SPEEDE:
	.long	60
	.align 4
	.type	_ZN7libsumoL12VAR_FRICTIONE, @object
	.size	_ZN7libsumoL12VAR_FRICTIONE, 4
_ZN7libsumoL12VAR_FRICTIONE:
	.long	61
	.align 4
	.type	_ZN7libsumoL13VAR_SPEED_LATE, @object
	.size	_ZN7libsumoL13VAR_SPEED_LATE, 4
_ZN7libsumoL13VAR_SPEED_LATE:
	.long	50
	.align 4
	.type	_ZN7libsumoL12VAR_MAXSPEEDE, @object
	.size	_ZN7libsumoL12VAR_MAXSPEEDE, 4
_ZN7libsumoL12VAR_MAXSPEEDE:
	.long	65
	.align 4
	.type	_ZN7libsumoL12VAR_POSITIONE, @object
	.size	_ZN7libsumoL12VAR_POSITIONE, 4
_ZN7libsumoL12VAR_POSITIONE:
	.long	66
	.align 4
	.type	_ZN7libsumoL18VAR_EXIT_POSITIONSE, @object
	.size	_ZN7libsumoL18VAR_EXIT_POSITIONSE, 4
_ZN7libsumoL18VAR_EXIT_POSITIONSE:
	.long	67
	.align 4
	.type	_ZN7libsumoL14VAR_POSITION3DE, @object
	.size	_ZN7libsumoL14VAR_POSITION3DE, 4
_ZN7libsumoL14VAR_POSITION3DE:
	.long	57
	.align 4
	.type	_ZN7libsumoL9VAR_ANGLEE, @object
	.size	_ZN7libsumoL9VAR_ANGLEE, 4
_ZN7libsumoL9VAR_ANGLEE:
	.long	67
	.align 4
	.type	_ZN7libsumoL10VAR_LENGTHE, @object
	.size	_ZN7libsumoL10VAR_LENGTHE, 4
_ZN7libsumoL10VAR_LENGTHE:
	.long	68
	.align 4
	.type	_ZN7libsumoL9VAR_COLORE, @object
	.size	_ZN7libsumoL9VAR_COLORE, 4
_ZN7libsumoL9VAR_COLORE:
	.long	69
	.align 4
	.type	_ZN7libsumoL9VAR_ACCELE, @object
	.size	_ZN7libsumoL9VAR_ACCELE, 4
_ZN7libsumoL9VAR_ACCELE:
	.long	70
	.align 4
	.type	_ZN7libsumoL9VAR_DECELE, @object
	.size	_ZN7libsumoL9VAR_DECELE, 4
_ZN7libsumoL9VAR_DECELE:
	.long	71
	.align 4
	.type	_ZN7libsumoL19VAR_EMERGENCY_DECELE, @object
	.size	_ZN7libsumoL19VAR_EMERGENCY_DECELE, 4
_ZN7libsumoL19VAR_EMERGENCY_DECELE:
	.long	123
	.align 4
	.type	_ZN7libsumoL18VAR_APPARENT_DECELE, @object
	.size	_ZN7libsumoL18VAR_APPARENT_DECELE, 4
_ZN7libsumoL18VAR_APPARENT_DECELE:
	.long	124
	.align 4
	.type	_ZN7libsumoL20VAR_ACTIONSTEPLENGTHE, @object
	.size	_ZN7libsumoL20VAR_ACTIONSTEPLENGTHE, 4
_ZN7libsumoL20VAR_ACTIONSTEPLENGTHE:
	.long	125
	.align 4
	.type	_ZN7libsumoL18VAR_LASTACTIONTIMEE, @object
	.size	_ZN7libsumoL18VAR_LASTACTIONTIMEE, 4
_ZN7libsumoL18VAR_LASTACTIONTIMEE:
	.long	127
	.align 4
	.type	_ZN7libsumoL7VAR_TAUE, @object
	.size	_ZN7libsumoL7VAR_TAUE, 4
_ZN7libsumoL7VAR_TAUE:
	.long	72
	.align 4
	.type	_ZN7libsumoL16VAR_VEHICLECLASSE, @object
	.size	_ZN7libsumoL16VAR_VEHICLECLASSE, 4
_ZN7libsumoL16VAR_VEHICLECLASSE:
	.long	73
	.align 4
	.type	_ZN7libsumoL17VAR_EMISSIONCLASSE, @object
	.size	_ZN7libsumoL17VAR_EMISSIONCLASSE, 4
_ZN7libsumoL17VAR_EMISSIONCLASSE:
	.long	74
	.align 4
	.type	_ZN7libsumoL14VAR_SHAPECLASSE, @object
	.size	_ZN7libsumoL14VAR_SHAPECLASSE, 4
_ZN7libsumoL14VAR_SHAPECLASSE:
	.long	75
	.align 4
	.type	_ZN7libsumoL10VAR_MINGAPE, @object
	.size	_ZN7libsumoL10VAR_MINGAPE, 4
_ZN7libsumoL10VAR_MINGAPE:
	.long	76
	.align 4
	.type	_ZN7libsumoL9VAR_WIDTHE, @object
	.size	_ZN7libsumoL9VAR_WIDTHE, 4
_ZN7libsumoL9VAR_WIDTHE:
	.long	77
	.align 4
	.type	_ZN7libsumoL9VAR_SHAPEE, @object
	.size	_ZN7libsumoL9VAR_SHAPEE, 4
_ZN7libsumoL9VAR_SHAPEE:
	.long	78
	.align 4
	.type	_ZN7libsumoL8VAR_TYPEE, @object
	.size	_ZN7libsumoL8VAR_TYPEE, 4
_ZN7libsumoL8VAR_TYPEE:
	.long	79
	.align 4
	.type	_ZN7libsumoL11VAR_ROAD_IDE, @object
	.size	_ZN7libsumoL11VAR_ROAD_IDE, 4
_ZN7libsumoL11VAR_ROAD_IDE:
	.long	80
	.align 4
	.type	_ZN7libsumoL11VAR_LANE_IDE, @object
	.size	_ZN7libsumoL11VAR_LANE_IDE, 4
_ZN7libsumoL11VAR_LANE_IDE:
	.long	81
	.align 4
	.type	_ZN7libsumoL14VAR_LANE_INDEXE, @object
	.size	_ZN7libsumoL14VAR_LANE_INDEXE, 4
_ZN7libsumoL14VAR_LANE_INDEXE:
	.long	82
	.align 4
	.type	_ZN7libsumoL12VAR_ROUTE_IDE, @object
	.size	_ZN7libsumoL12VAR_ROUTE_IDE, 4
_ZN7libsumoL12VAR_ROUTE_IDE:
	.long	83
	.align 4
	.type	_ZN7libsumoL9VAR_EDGESE, @object
	.size	_ZN7libsumoL9VAR_EDGESE, 4
_ZN7libsumoL9VAR_EDGESE:
	.long	84
	.align 4
	.type	_ZN7libsumoL18VAR_STOP_PARAMETERE, @object
	.size	_ZN7libsumoL18VAR_STOP_PARAMETERE, 4
_ZN7libsumoL18VAR_STOP_PARAMETERE:
	.long	85
	.align 4
	.type	_ZN7libsumoL9VAR_LANESE, @object
	.size	_ZN7libsumoL9VAR_LANESE, 4
_ZN7libsumoL9VAR_LANESE:
	.long	48
	.align 4
	.type	_ZN7libsumoL14VAR_EXIT_LANESE, @object
	.size	_ZN7libsumoL14VAR_EXIT_LANESE, 4
_ZN7libsumoL14VAR_EXIT_LANESE:
	.long	49
	.align 4
	.type	_ZN7libsumoL20VAR_UPDATE_BESTLANESE, @object
	.size	_ZN7libsumoL20VAR_UPDATE_BESTLANESE, 4
_ZN7libsumoL20VAR_UPDATE_BESTLANESE:
	.long	106
	.align 4
	.type	_ZN7libsumoL8VAR_FILLE, @object
	.size	_ZN7libsumoL8VAR_FILLE, 4
_ZN7libsumoL8VAR_FILLE:
	.long	85
	.align 4
	.type	_ZN7libsumoL13VAR_IMAGEFILEE, @object
	.size	_ZN7libsumoL13VAR_IMAGEFILEE, 4
_ZN7libsumoL13VAR_IMAGEFILEE:
	.long	147
	.align 4
	.type	_ZN7libsumoL16VAR_LANEPOSITIONE, @object
	.size	_ZN7libsumoL16VAR_LANEPOSITIONE, 4
_ZN7libsumoL16VAR_LANEPOSITIONE:
	.long	86
	.align 4
	.type	_ZN7libsumoL9VAR_ROUTEE, @object
	.size	_ZN7libsumoL9VAR_ROUTEE, 4
_ZN7libsumoL9VAR_ROUTEE:
	.long	87
	.align 4
	.type	_ZN7libsumoL19VAR_EDGE_TRAVELTIMEE, @object
	.size	_ZN7libsumoL19VAR_EDGE_TRAVELTIMEE, 4
_ZN7libsumoL19VAR_EDGE_TRAVELTIMEE:
	.long	88
	.align 4
	.type	_ZN7libsumoL15VAR_EDGE_EFFORTE, @object
	.size	_ZN7libsumoL15VAR_EDGE_EFFORTE, 4
_ZN7libsumoL15VAR_EDGE_EFFORTE:
	.long	89
	.align 4
	.type	_ZN7libsumoL22VAR_CURRENT_TRAVELTIMEE, @object
	.size	_ZN7libsumoL22VAR_CURRENT_TRAVELTIMEE, 4
_ZN7libsumoL22VAR_CURRENT_TRAVELTIMEE:
	.long	90
	.align 4
	.type	_ZN7libsumoL11VAR_SIGNALSE, @object
	.size	_ZN7libsumoL11VAR_SIGNALSE, 4
_ZN7libsumoL11VAR_SIGNALSE:
	.long	91
	.align 4
	.type	_ZN7libsumoL11VAR_MOVE_TOE, @object
	.size	_ZN7libsumoL11VAR_MOVE_TOE, 4
_ZN7libsumoL11VAR_MOVE_TOE:
	.long	92
	.align 4
	.type	_ZN7libsumoL16VAR_ADD_DYNAMICSE, @object
	.size	_ZN7libsumoL16VAR_ADD_DYNAMICSE, 4
_ZN7libsumoL16VAR_ADD_DYNAMICSE:
	.long	92
	.align 4
	.type	_ZN7libsumoL13VAR_HIGHLIGHTE, @object
	.size	_ZN7libsumoL13VAR_HIGHLIGHTE, 4
_ZN7libsumoL13VAR_HIGHLIGHTE:
	.long	108
	.align 4
	.type	_ZN7libsumoL16VAR_IMPERFECTIONE, @object
	.size	_ZN7libsumoL16VAR_IMPERFECTIONE, 4
_ZN7libsumoL16VAR_IMPERFECTIONE:
	.long	93
	.align 4
	.type	_ZN7libsumoL16VAR_SPEED_FACTORE, @object
	.size	_ZN7libsumoL16VAR_SPEED_FACTORE, 4
_ZN7libsumoL16VAR_SPEED_FACTORE:
	.long	94
	.align 4
	.type	_ZN7libsumoL19VAR_SPEED_DEVIATIONE, @object
	.size	_ZN7libsumoL19VAR_SPEED_DEVIATIONE, 4
_ZN7libsumoL19VAR_SPEED_DEVIATIONE:
	.long	95
	.align 4
	.type	_ZN7libsumoL16VAR_ROUTING_MODEE, @object
	.size	_ZN7libsumoL16VAR_ROUTING_MODEE, 4
_ZN7libsumoL16VAR_ROUTING_MODEE:
	.long	137
	.align 4
	.type	_ZN7libsumoL23VAR_SPEED_WITHOUT_TRACIE, @object
	.size	_ZN7libsumoL23VAR_SPEED_WITHOUT_TRACIE, 4
_ZN7libsumoL23VAR_SPEED_WITHOUT_TRACIE:
	.long	177
	.align 4
	.type	_ZN7libsumoL14VAR_BEST_LANESE, @object
	.size	_ZN7libsumoL14VAR_BEST_LANESE, 4
_ZN7libsumoL14VAR_BEST_LANESE:
	.long	178
	.align 4
	.type	_ZN7libsumoL16VAR_SPEEDSETMODEE, @object
	.size	_ZN7libsumoL16VAR_SPEEDSETMODEE, 4
_ZN7libsumoL16VAR_SPEEDSETMODEE:
	.long	179
	.align 4
	.type	_ZN7libsumoL10MOVE_TO_XYE, @object
	.size	_ZN7libsumoL10MOVE_TO_XYE, 4
_ZN7libsumoL10MOVE_TO_XYE:
	.long	180
	.align 4
	.type	_ZN7libsumoL13VAR_STOPSTATEE, @object
	.size	_ZN7libsumoL13VAR_STOPSTATEE, 4
_ZN7libsumoL13VAR_STOPSTATEE:
	.long	181
	.align 4
	.type	_ZN7libsumoL19VAR_LANECHANGE_MODEE, @object
	.size	_ZN7libsumoL19VAR_LANECHANGE_MODEE, 4
_ZN7libsumoL19VAR_LANECHANGE_MODEE:
	.long	182
	.align 4
	.type	_ZN7libsumoL17VAR_ALLOWED_SPEEDE, @object
	.size	_ZN7libsumoL17VAR_ALLOWED_SPEEDE, 4
_ZN7libsumoL17VAR_ALLOWED_SPEEDE:
	.long	183
	.align 4
	.type	_ZN7libsumoL20VAR_LANEPOSITION_LATE, @object
	.size	_ZN7libsumoL20VAR_LANEPOSITION_LATE, 4
_ZN7libsumoL20VAR_LANEPOSITION_LATE:
	.long	184
	.align 4
	.type	_ZN7libsumoL16VAR_LATALIGNMENTE, @object
	.size	_ZN7libsumoL16VAR_LATALIGNMENTE, 4
_ZN7libsumoL16VAR_LATALIGNMENTE:
	.long	185
	.align 4
	.type	_ZN7libsumoL16VAR_MAXSPEED_LATE, @object
	.size	_ZN7libsumoL16VAR_MAXSPEED_LATE, 4
_ZN7libsumoL16VAR_MAXSPEED_LATE:
	.long	186
	.align 4
	.type	_ZN7libsumoL14VAR_MINGAP_LATE, @object
	.size	_ZN7libsumoL14VAR_MINGAP_LATE, 4
_ZN7libsumoL14VAR_MINGAP_LATE:
	.long	187
	.align 4
	.type	_ZN7libsumoL10VAR_HEIGHTE, @object
	.size	_ZN7libsumoL10VAR_HEIGHTE, 4
_ZN7libsumoL10VAR_HEIGHTE:
	.long	188
	.align 4
	.type	_ZN7libsumoL8VAR_LINEE, @object
	.size	_ZN7libsumoL8VAR_LINEE, 4
_ZN7libsumoL8VAR_LINEE:
	.long	189
	.align 4
	.type	_ZN7libsumoL7VAR_VIAE, @object
	.size	_ZN7libsumoL7VAR_VIAE, 4
_ZN7libsumoL7VAR_VIAE:
	.long	190
	.align 4
	.type	_ZN7libsumoL13VAR_NEIGHBORSE, @object
	.size	_ZN7libsumoL13VAR_NEIGHBORSE, 4
_ZN7libsumoL13VAR_NEIGHBORSE:
	.long	191
	.align 4
	.type	_ZN7libsumoL15VAR_CO2EMISSIONE, @object
	.size	_ZN7libsumoL15VAR_CO2EMISSIONE, 4
_ZN7libsumoL15VAR_CO2EMISSIONE:
	.long	96
	.align 4
	.type	_ZN7libsumoL14VAR_COEMISSIONE, @object
	.size	_ZN7libsumoL14VAR_COEMISSIONE, 4
_ZN7libsumoL14VAR_COEMISSIONE:
	.long	97
	.align 4
	.type	_ZN7libsumoL14VAR_HCEMISSIONE, @object
	.size	_ZN7libsumoL14VAR_HCEMISSIONE, 4
_ZN7libsumoL14VAR_HCEMISSIONE:
	.long	98
	.align 4
	.type	_ZN7libsumoL15VAR_PMXEMISSIONE, @object
	.size	_ZN7libsumoL15VAR_PMXEMISSIONE, 4
_ZN7libsumoL15VAR_PMXEMISSIONE:
	.long	99
	.align 4
	.type	_ZN7libsumoL15VAR_NOXEMISSIONE, @object
	.size	_ZN7libsumoL15VAR_NOXEMISSIONE, 4
_ZN7libsumoL15VAR_NOXEMISSIONE:
	.long	100
	.align 4
	.type	_ZN7libsumoL19VAR_FUELCONSUMPTIONE, @object
	.size	_ZN7libsumoL19VAR_FUELCONSUMPTIONE, 4
_ZN7libsumoL19VAR_FUELCONSUMPTIONE:
	.long	101
	.align 4
	.type	_ZN7libsumoL17VAR_NOISEEMISSIONE, @object
	.size	_ZN7libsumoL17VAR_NOISEEMISSIONE, 4
_ZN7libsumoL17VAR_NOISEEMISSIONE:
	.long	102
	.align 4
	.type	_ZN7libsumoL17VAR_PERSON_NUMBERE, @object
	.size	_ZN7libsumoL17VAR_PERSON_NUMBERE, 4
_ZN7libsumoL17VAR_PERSON_NUMBERE:
	.long	103
	.align 4
	.type	_ZN7libsumoL19VAR_PERSON_CAPACITYE, @object
	.size	_ZN7libsumoL19VAR_PERSON_CAPACITYE, 4
_ZN7libsumoL19VAR_PERSON_CAPACITYE:
	.long	56
	.align 4
	.type	_ZN7libsumoL13VAR_DEPARTUREE, @object
	.size	_ZN7libsumoL13VAR_DEPARTUREE, 4
_ZN7libsumoL13VAR_DEPARTUREE:
	.long	58
	.align 4
	.type	_ZN7libsumoL16VAR_DEPART_DELAYE, @object
	.size	_ZN7libsumoL16VAR_DEPART_DELAYE, 4
_ZN7libsumoL16VAR_DEPART_DELAYE:
	.long	59
	.align 4
	.type	_ZN7libsumoL21VAR_BOARDING_DURATIONE, @object
	.size	_ZN7libsumoL21VAR_BOARDING_DURATIONE, 4
_ZN7libsumoL21VAR_BOARDING_DURATIONE:
	.long	47
	.align 4
	.type	_ZN7libsumoL14VAR_IMPATIENCEE, @object
	.size	_ZN7libsumoL14VAR_IMPATIENCEE, 4
_ZN7libsumoL14VAR_IMPATIENCEE:
	.long	38
	.align 4
	.type	_ZN7libsumoL20VAR_BUS_STOP_ID_LISTE, @object
	.size	_ZN7libsumoL20VAR_BUS_STOP_ID_LISTE, 4
_ZN7libsumoL20VAR_BUS_STOP_ID_LISTE:
	.long	159
	.align 4
	.type	_ZN7libsumoL20VAR_BUS_STOP_WAITINGE, @object
	.size	_ZN7libsumoL20VAR_BUS_STOP_WAITINGE, 4
_ZN7libsumoL20VAR_BUS_STOP_WAITINGE:
	.long	103
	.align 4
	.type	_ZN7libsumoL24VAR_BUS_STOP_WAITING_IDSE, @object
	.size	_ZN7libsumoL24VAR_BUS_STOP_WAITING_IDSE, 4
_ZN7libsumoL24VAR_BUS_STOP_WAITING_IDSE:
	.long	239
	.align 4
	.type	_ZN7libsumoL10VAR_LEADERE, @object
	.size	_ZN7libsumoL10VAR_LEADERE, 4
_ZN7libsumoL10VAR_LEADERE:
	.long	104
	.align 4
	.type	_ZN7libsumoL12VAR_FOLLOWERE, @object
	.size	_ZN7libsumoL12VAR_FOLLOWERE, 4
_ZN7libsumoL12VAR_FOLLOWERE:
	.long	120
	.align 4
	.type	_ZN7libsumoL15VAR_ROUTE_INDEXE, @object
	.size	_ZN7libsumoL15VAR_ROUTE_INDEXE, 4
_ZN7libsumoL15VAR_ROUTE_INDEXE:
	.long	105
	.align 4
	.type	_ZN7libsumoL16VAR_WAITING_TIMEE, @object
	.size	_ZN7libsumoL16VAR_WAITING_TIMEE, 4
_ZN7libsumoL16VAR_WAITING_TIMEE:
	.long	122
	.align 4
	.type	_ZN7libsumoL28VAR_ACCUMULATED_WAITING_TIMEE, @object
	.size	_ZN7libsumoL28VAR_ACCUMULATED_WAITING_TIMEE, 4
_ZN7libsumoL28VAR_ACCUMULATED_WAITING_TIMEE:
	.long	135
	.align 4
	.type	_ZN7libsumoL12VAR_NEXT_TLSE, @object
	.size	_ZN7libsumoL12VAR_NEXT_TLSE, 4
_ZN7libsumoL12VAR_NEXT_TLSE:
	.long	112
	.align 4
	.type	_ZN7libsumoL14VAR_NEXT_STOPSE, @object
	.size	_ZN7libsumoL14VAR_NEXT_STOPSE, 4
_ZN7libsumoL14VAR_NEXT_STOPSE:
	.long	115
	.align 4
	.type	_ZN7libsumoL15VAR_NEXT_STOPS2E, @object
	.size	_ZN7libsumoL15VAR_NEXT_STOPS2E, 4
_ZN7libsumoL15VAR_NEXT_STOPS2E:
	.long	116
	.align 4
	.type	_ZN7libsumoL14VAR_NEXT_LINKSE, @object
	.size	_ZN7libsumoL14VAR_NEXT_LINKSE, 4
_ZN7libsumoL14VAR_NEXT_LINKSE:
	.long	51
	.align 4
	.type	_ZN7libsumoL16VAR_ACCELERATIONE, @object
	.size	_ZN7libsumoL16VAR_ACCELERATIONE, 4
_ZN7libsumoL16VAR_ACCELERATIONE:
	.long	114
	.align 4
	.type	_ZN7libsumoL14VAR_ARRIVALPOSE, @object
	.size	_ZN7libsumoL14VAR_ARRIVALPOSE, 4
_ZN7libsumoL14VAR_ARRIVALPOSE:
	.long	117
	.align 4
	.type	_ZN7libsumoL15VAR_ARRIVALLANEE, @object
	.size	_ZN7libsumoL15VAR_ARRIVALLANEE, 4
_ZN7libsumoL15VAR_ARRIVALLANEE:
	.long	118
	.align 4
	.type	_ZN7libsumoL16VAR_ARRIVALSPEEDE, @object
	.size	_ZN7libsumoL16VAR_ARRIVALSPEEDE, 4
_ZN7libsumoL16VAR_ARRIVALSPEEDE:
	.long	119
	.align 4
	.type	_ZN7libsumoL11CMD_MESSAGEE, @object
	.size	_ZN7libsumoL11CMD_MESSAGEE, 4
_ZN7libsumoL11CMD_MESSAGEE:
	.long	101
	.align 4
	.type	_ZN7libsumoL8VAR_TIMEE, @object
	.size	_ZN7libsumoL8VAR_TIMEE, 4
_ZN7libsumoL8VAR_TIMEE:
	.long	102
	.align 4
	.type	_ZN7libsumoL13VAR_TIME_STEPE, @object
	.size	_ZN7libsumoL13VAR_TIME_STEPE, 4
_ZN7libsumoL13VAR_TIME_STEPE:
	.long	112
	.align 4
	.type	_ZN7libsumoL26VAR_ELECTRICITYCONSUMPTIONE, @object
	.size	_ZN7libsumoL26VAR_ELECTRICITYCONSUMPTIONE, 4
_ZN7libsumoL26VAR_ELECTRICITYCONSUMPTIONE:
	.long	113
	.align 4
	.type	_ZN7libsumoL26VAR_LOADED_VEHICLES_NUMBERE, @object
	.size	_ZN7libsumoL26VAR_LOADED_VEHICLES_NUMBERE, 4
_ZN7libsumoL26VAR_LOADED_VEHICLES_NUMBERE:
	.long	113
	.align 4
	.type	_ZN7libsumoL23VAR_LOADED_VEHICLES_IDSE, @object
	.size	_ZN7libsumoL23VAR_LOADED_VEHICLES_IDSE, 4
_ZN7libsumoL23VAR_LOADED_VEHICLES_IDSE:
	.long	114
	.align 4
	.type	_ZN7libsumoL28VAR_DEPARTED_VEHICLES_NUMBERE, @object
	.size	_ZN7libsumoL28VAR_DEPARTED_VEHICLES_NUMBERE, 4
_ZN7libsumoL28VAR_DEPARTED_VEHICLES_NUMBERE:
	.long	115
	.align 4
	.type	_ZN7libsumoL25VAR_DEPARTED_VEHICLES_IDSE, @object
	.size	_ZN7libsumoL25VAR_DEPARTED_VEHICLES_IDSE, 4
_ZN7libsumoL25VAR_DEPARTED_VEHICLES_IDSE:
	.long	116
	.align 4
	.type	_ZN7libsumoL37VAR_TELEPORT_STARTING_VEHICLES_NUMBERE, @object
	.size	_ZN7libsumoL37VAR_TELEPORT_STARTING_VEHICLES_NUMBERE, 4
_ZN7libsumoL37VAR_TELEPORT_STARTING_VEHICLES_NUMBERE:
	.long	117
	.align 4
	.type	_ZN7libsumoL34VAR_TELEPORT_STARTING_VEHICLES_IDSE, @object
	.size	_ZN7libsumoL34VAR_TELEPORT_STARTING_VEHICLES_IDSE, 4
_ZN7libsumoL34VAR_TELEPORT_STARTING_VEHICLES_IDSE:
	.long	118
	.align 4
	.type	_ZN7libsumoL35VAR_TELEPORT_ENDING_VEHICLES_NUMBERE, @object
	.size	_ZN7libsumoL35VAR_TELEPORT_ENDING_VEHICLES_NUMBERE, 4
_ZN7libsumoL35VAR_TELEPORT_ENDING_VEHICLES_NUMBERE:
	.long	119
	.align 4
	.type	_ZN7libsumoL32VAR_TELEPORT_ENDING_VEHICLES_IDSE, @object
	.size	_ZN7libsumoL32VAR_TELEPORT_ENDING_VEHICLES_IDSE, 4
_ZN7libsumoL32VAR_TELEPORT_ENDING_VEHICLES_IDSE:
	.long	120
	.align 4
	.type	_ZN7libsumoL27VAR_ARRIVED_VEHICLES_NUMBERE, @object
	.size	_ZN7libsumoL27VAR_ARRIVED_VEHICLES_NUMBERE, 4
_ZN7libsumoL27VAR_ARRIVED_VEHICLES_NUMBERE:
	.long	121
	.align 4
	.type	_ZN7libsumoL24VAR_ARRIVED_VEHICLES_IDSE, @object
	.size	_ZN7libsumoL24VAR_ARRIVED_VEHICLES_IDSE, 4
_ZN7libsumoL24VAR_ARRIVED_VEHICLES_IDSE:
	.long	122
	.align 4
	.type	_ZN7libsumoL11VAR_DELTA_TE, @object
	.size	_ZN7libsumoL11VAR_DELTA_TE, 4
_ZN7libsumoL11VAR_DELTA_TE:
	.long	123
	.align 4
	.type	_ZN7libsumoL20VAR_NET_BOUNDING_BOXE, @object
	.size	_ZN7libsumoL20VAR_NET_BOUNDING_BOXE, 4
_ZN7libsumoL20VAR_NET_BOUNDING_BOXE:
	.long	124
	.align 4
	.type	_ZN7libsumoL25VAR_MIN_EXPECTED_VEHICLESE, @object
	.size	_ZN7libsumoL25VAR_MIN_EXPECTED_VEHICLESE, 4
_ZN7libsumoL25VAR_MIN_EXPECTED_VEHICLESE:
	.long	125
	.align 4
	.type	_ZN7libsumoL27VAR_DEPARTED_PERSONS_NUMBERE, @object
	.size	_ZN7libsumoL27VAR_DEPARTED_PERSONS_NUMBERE, 4
_ZN7libsumoL27VAR_DEPARTED_PERSONS_NUMBERE:
	.long	36
	.align 4
	.type	_ZN7libsumoL24VAR_DEPARTED_PERSONS_IDSE, @object
	.size	_ZN7libsumoL24VAR_DEPARTED_PERSONS_IDSE, 4
_ZN7libsumoL24VAR_DEPARTED_PERSONS_IDSE:
	.long	37
	.align 4
	.type	_ZN7libsumoL26VAR_ARRIVED_PERSONS_NUMBERE, @object
	.size	_ZN7libsumoL26VAR_ARRIVED_PERSONS_NUMBERE, 4
_ZN7libsumoL26VAR_ARRIVED_PERSONS_NUMBERE:
	.long	38
	.align 4
	.type	_ZN7libsumoL23VAR_ARRIVED_PERSONS_IDSE, @object
	.size	_ZN7libsumoL23VAR_ARRIVED_PERSONS_IDSE, 4
_ZN7libsumoL23VAR_ARRIVED_PERSONS_IDSE:
	.long	39
	.align 4
	.type	_ZN7libsumoL33VAR_STOP_STARTING_VEHICLES_NUMBERE, @object
	.size	_ZN7libsumoL33VAR_STOP_STARTING_VEHICLES_NUMBERE, 4
_ZN7libsumoL33VAR_STOP_STARTING_VEHICLES_NUMBERE:
	.long	104
	.align 4
	.type	_ZN7libsumoL30VAR_STOP_STARTING_VEHICLES_IDSE, @object
	.size	_ZN7libsumoL30VAR_STOP_STARTING_VEHICLES_IDSE, 4
_ZN7libsumoL30VAR_STOP_STARTING_VEHICLES_IDSE:
	.long	105
	.align 4
	.type	_ZN7libsumoL31VAR_STOP_ENDING_VEHICLES_NUMBERE, @object
	.size	_ZN7libsumoL31VAR_STOP_ENDING_VEHICLES_NUMBERE, 4
_ZN7libsumoL31VAR_STOP_ENDING_VEHICLES_NUMBERE:
	.long	106
	.align 4
	.type	_ZN7libsumoL28VAR_STOP_ENDING_VEHICLES_IDSE, @object
	.size	_ZN7libsumoL28VAR_STOP_ENDING_VEHICLES_IDSE, 4
_ZN7libsumoL28VAR_STOP_ENDING_VEHICLES_IDSE:
	.long	107
	.align 4
	.type	_ZN7libsumoL36VAR_PARKING_STARTING_VEHICLES_NUMBERE, @object
	.size	_ZN7libsumoL36VAR_PARKING_STARTING_VEHICLES_NUMBERE, 4
_ZN7libsumoL36VAR_PARKING_STARTING_VEHICLES_NUMBERE:
	.long	108
	.align 4
	.type	_ZN7libsumoL33VAR_PARKING_STARTING_VEHICLES_IDSE, @object
	.size	_ZN7libsumoL33VAR_PARKING_STARTING_VEHICLES_IDSE, 4
_ZN7libsumoL33VAR_PARKING_STARTING_VEHICLES_IDSE:
	.long	109
	.align 4
	.type	_ZN7libsumoL39VAR_PARKING_MANEUVERING_VEHICLES_NUMBERE, @object
	.size	_ZN7libsumoL39VAR_PARKING_MANEUVERING_VEHICLES_NUMBERE, 4
_ZN7libsumoL39VAR_PARKING_MANEUVERING_VEHICLES_NUMBERE:
	.long	58
	.align 4
	.type	_ZN7libsumoL36VAR_PARKING_MANEUVERING_VEHICLES_IDSE, @object
	.size	_ZN7libsumoL36VAR_PARKING_MANEUVERING_VEHICLES_IDSE, 4
_ZN7libsumoL36VAR_PARKING_MANEUVERING_VEHICLES_IDSE:
	.long	59
	.align 4
	.type	_ZN7libsumoL34VAR_PARKING_ENDING_VEHICLES_NUMBERE, @object
	.size	_ZN7libsumoL34VAR_PARKING_ENDING_VEHICLES_NUMBERE, 4
_ZN7libsumoL34VAR_PARKING_ENDING_VEHICLES_NUMBERE:
	.long	110
	.align 4
	.type	_ZN7libsumoL31VAR_PARKING_ENDING_VEHICLES_IDSE, @object
	.size	_ZN7libsumoL31VAR_PARKING_ENDING_VEHICLES_IDSE, 4
_ZN7libsumoL31VAR_PARKING_ENDING_VEHICLES_IDSE:
	.long	111
	.align 4
	.type	_ZN7libsumoL29VAR_COLLIDING_VEHICLES_NUMBERE, @object
	.size	_ZN7libsumoL29VAR_COLLIDING_VEHICLES_NUMBERE, 4
_ZN7libsumoL29VAR_COLLIDING_VEHICLES_NUMBERE:
	.long	128
	.align 4
	.type	_ZN7libsumoL26VAR_COLLIDING_VEHICLES_IDSE, @object
	.size	_ZN7libsumoL26VAR_COLLIDING_VEHICLES_IDSE, 4
_ZN7libsumoL26VAR_COLLIDING_VEHICLES_IDSE:
	.long	129
	.align 4
	.type	_ZN7libsumoL37VAR_EMERGENCYSTOPPING_VEHICLES_NUMBERE, @object
	.size	_ZN7libsumoL37VAR_EMERGENCYSTOPPING_VEHICLES_NUMBERE, 4
_ZN7libsumoL37VAR_EMERGENCYSTOPPING_VEHICLES_NUMBERE:
	.long	137
	.align 4
	.type	_ZN7libsumoL34VAR_EMERGENCYSTOPPING_VEHICLES_IDSE, @object
	.size	_ZN7libsumoL34VAR_EMERGENCYSTOPPING_VEHICLES_IDSE, 4
_ZN7libsumoL34VAR_EMERGENCYSTOPPING_VEHICLES_IDSE:
	.long	138
	.align 4
	.type	_ZN7libsumoL9VAR_SCALEE, @object
	.size	_ZN7libsumoL9VAR_SCALEE, 4
_ZN7libsumoL9VAR_SCALEE:
	.long	142
	.align 4
	.type	_ZN7libsumoL26CMD_CLEAR_PENDING_VEHICLESE, @object
	.size	_ZN7libsumoL26CMD_CLEAR_PENDING_VEHICLESE, 4
_ZN7libsumoL26CMD_CLEAR_PENDING_VEHICLESE:
	.long	148
	.align 4
	.type	_ZN7libsumoL20VAR_PENDING_VEHICLESE, @object
	.size	_ZN7libsumoL20VAR_PENDING_VEHICLESE, 4
_ZN7libsumoL20VAR_PENDING_VEHICLESE:
	.long	148
	.align 4
	.type	_ZN7libsumoL10VAR_OPTIONE, @object
	.size	_ZN7libsumoL10VAR_OPTIONE, 4
_ZN7libsumoL10VAR_OPTIONE:
	.long	50
	.align 4
	.type	_ZN7libsumoL17CMD_SAVE_SIMSTATEE, @object
	.size	_ZN7libsumoL17CMD_SAVE_SIMSTATEE, 4
_ZN7libsumoL17CMD_SAVE_SIMSTATEE:
	.long	149
	.align 4
	.type	_ZN7libsumoL17CMD_LOAD_SIMSTATEE, @object
	.size	_ZN7libsumoL17CMD_LOAD_SIMSTATEE, 4
_ZN7libsumoL17CMD_LOAD_SIMSTATEE:
	.long	150
	.align 4
	.type	_ZN7libsumoL14VAR_COLLISIONSE, @object
	.size	_ZN7libsumoL14VAR_COLLISIONSE, 4
_ZN7libsumoL14VAR_COLLISIONSE:
	.long	35
	.align 4
	.type	_ZN7libsumoL15VAR_LOADED_LISTE, @object
	.size	_ZN7libsumoL15VAR_LOADED_LISTE, 4
_ZN7libsumoL15VAR_LOADED_LISTE:
	.long	36
	.align 4
	.type	_ZN7libsumoL20VAR_TELEPORTING_LISTE, @object
	.size	_ZN7libsumoL20VAR_TELEPORTING_LISTE, 4
_ZN7libsumoL20VAR_TELEPORTING_LISTE:
	.long	37
	.align 4
	.type	_ZN7libsumoL13VAR_PARAMETERE, @object
	.size	_ZN7libsumoL13VAR_PARAMETERE, 4
_ZN7libsumoL13VAR_PARAMETERE:
	.long	126
	.align 4
	.type	_ZN7libsumoL22VAR_PARAMETER_WITH_KEYE, @object
	.size	_ZN7libsumoL22VAR_PARAMETER_WITH_KEYE, 4
_ZN7libsumoL22VAR_PARAMETER_WITH_KEYE:
	.long	62
	.align 4
	.type	_ZN7libsumoL3ADDE, @object
	.size	_ZN7libsumoL3ADDE, 4
_ZN7libsumoL3ADDE:
	.long	128
	.align 4
	.type	_ZN7libsumoL6REMOVEE, @object
	.size	_ZN7libsumoL6REMOVEE, 4
_ZN7libsumoL6REMOVEE:
	.long	129
	.align 4
	.type	_ZN7libsumoL4COPYE, @object
	.size	_ZN7libsumoL4COPYE, 4
_ZN7libsumoL4COPYE:
	.long	136
	.align 4
	.type	_ZN7libsumoL19POSITION_CONVERSIONE, @object
	.size	_ZN7libsumoL19POSITION_CONVERSIONE, 4
_ZN7libsumoL19POSITION_CONVERSIONE:
	.long	130
	.align 4
	.type	_ZN7libsumoL16DISTANCE_REQUESTE, @object
	.size	_ZN7libsumoL16DISTANCE_REQUESTE, 4
_ZN7libsumoL16DISTANCE_REQUESTE:
	.long	131
	.align 4
	.type	_ZN7libsumoL12VAR_DISTANCEE, @object
	.size	_ZN7libsumoL12VAR_DISTANCEE, 4
_ZN7libsumoL12VAR_DISTANCEE:
	.long	132
	.align 4
	.type	_ZN7libsumoL8ADD_FULLE, @object
	.size	_ZN7libsumoL8ADD_FULLE, 4
_ZN7libsumoL8ADD_FULLE:
	.long	133
	.align 4
	.type	_ZN7libsumoL10FIND_ROUTEE, @object
	.size	_ZN7libsumoL10FIND_ROUTEE, 4
_ZN7libsumoL10FIND_ROUTEE:
	.long	134
	.align 4
	.type	_ZN7libsumoL21FIND_INTERMODAL_ROUTEE, @object
	.size	_ZN7libsumoL21FIND_INTERMODAL_ROUTEE, 4
_ZN7libsumoL21FIND_INTERMODAL_ROUTEE:
	.long	135
	.align 4
	.type	_ZN7libsumoL22CMD_REROUTE_TRAVELTIMEE, @object
	.size	_ZN7libsumoL22CMD_REROUTE_TRAVELTIMEE, 4
_ZN7libsumoL22CMD_REROUTE_TRAVELTIMEE:
	.long	144
	.align 4
	.type	_ZN7libsumoL18CMD_REROUTE_EFFORTE, @object
	.size	_ZN7libsumoL18CMD_REROUTE_EFFORTE, 4
_ZN7libsumoL18CMD_REROUTE_EFFORTE:
	.long	145
	.align 4
	.type	_ZN7libsumoL15VAR_ROUTE_VALIDE, @object
	.size	_ZN7libsumoL15VAR_ROUTE_VALIDE, 4
_ZN7libsumoL15VAR_ROUTE_VALIDE:
	.long	146
	.align 4
	.type	_ZN7libsumoL9VAR_STAGEE, @object
	.size	_ZN7libsumoL9VAR_STAGEE, 4
_ZN7libsumoL9VAR_STAGEE:
	.long	192
	.align 4
	.type	_ZN7libsumoL13VAR_NEXT_EDGEE, @object
	.size	_ZN7libsumoL13VAR_NEXT_EDGEE, 4
_ZN7libsumoL13VAR_NEXT_EDGEE:
	.long	193
	.align 4
	.type	_ZN7libsumoL20VAR_STAGES_REMAININGE, @object
	.size	_ZN7libsumoL20VAR_STAGES_REMAININGE, 4
_ZN7libsumoL20VAR_STAGES_REMAININGE:
	.long	194
	.align 4
	.type	_ZN7libsumoL11VAR_VEHICLEE, @object
	.size	_ZN7libsumoL11VAR_VEHICLEE, 4
_ZN7libsumoL11VAR_VEHICLEE:
	.long	195
	.align 4
	.type	_ZN7libsumoL12APPEND_STAGEE, @object
	.size	_ZN7libsumoL12APPEND_STAGEE, 4
_ZN7libsumoL12APPEND_STAGEE:
	.long	196
	.align 4
	.type	_ZN7libsumoL13REPLACE_STAGEE, @object
	.size	_ZN7libsumoL13REPLACE_STAGEE, 4
_ZN7libsumoL13REPLACE_STAGEE:
	.long	205
	.align 4
	.type	_ZN7libsumoL12REMOVE_STAGEE, @object
	.size	_ZN7libsumoL12REMOVE_STAGEE, 4
_ZN7libsumoL12REMOVE_STAGEE:
	.long	197
	.align 4
	.type	_ZN7libsumoL21VAR_TAXI_RESERVATIONSE, @object
	.size	_ZN7libsumoL21VAR_TAXI_RESERVATIONSE, 4
_ZN7libsumoL21VAR_TAXI_RESERVATIONSE:
	.long	198
	.align 4
	.type	_ZN7libsumoL23SPLIT_TAXI_RESERVATIONSE, @object
	.size	_ZN7libsumoL23SPLIT_TAXI_RESERVATIONSE, 4
_ZN7libsumoL23SPLIT_TAXI_RESERVATIONSE:
	.long	199
	.align 4
	.type	_ZN7libsumoL15VAR_SAMPLE_LASTE, @object
	.size	_ZN7libsumoL15VAR_SAMPLE_LASTE, 4
_ZN7libsumoL15VAR_SAMPLE_LASTE:
	.long	32
	.align 4
	.type	_ZN7libsumoL18VAR_SAMPLE_CURRENTE, @object
	.size	_ZN7libsumoL18VAR_SAMPLE_CURRENTE, 4
_ZN7libsumoL18VAR_SAMPLE_CURRENTE:
	.long	33
	.align 4
	.type	_ZN7libsumoL13VAR_VIEW_ZOOME, @object
	.size	_ZN7libsumoL13VAR_VIEW_ZOOME, 4
_ZN7libsumoL13VAR_VIEW_ZOOME:
	.long	160
	.align 4
	.type	_ZN7libsumoL15VAR_VIEW_OFFSETE, @object
	.size	_ZN7libsumoL15VAR_VIEW_OFFSETE, 4
_ZN7libsumoL15VAR_VIEW_OFFSETE:
	.long	161
	.align 4
	.type	_ZN7libsumoL15VAR_VIEW_SCHEMAE, @object
	.size	_ZN7libsumoL15VAR_VIEW_SCHEMAE, 4
_ZN7libsumoL15VAR_VIEW_SCHEMAE:
	.long	162
	.align 4
	.type	_ZN7libsumoL17VAR_VIEW_BOUNDARYE, @object
	.size	_ZN7libsumoL17VAR_VIEW_BOUNDARYE, 4
_ZN7libsumoL17VAR_VIEW_BOUNDARYE:
	.long	163
	.align 4
	.type	_ZN7libsumoL10VAR_SELECTE, @object
	.size	_ZN7libsumoL10VAR_SELECTE, 4
_ZN7libsumoL10VAR_SELECTE:
	.long	164
	.align 4
	.type	_ZN7libsumoL14VAR_SCREENSHOTE, @object
	.size	_ZN7libsumoL14VAR_SCREENSHOTE, 4
_ZN7libsumoL14VAR_SCREENSHOTE:
	.long	165
	.align 4
	.type	_ZN7libsumoL17VAR_TRACK_VEHICLEE, @object
	.size	_ZN7libsumoL17VAR_TRACK_VEHICLEE, 4
_ZN7libsumoL17VAR_TRACK_VEHICLEE:
	.long	166
	.align 4
	.type	_ZN7libsumoL12VAR_HAS_VIEWE, @object
	.size	_ZN7libsumoL12VAR_HAS_VIEWE, 4
_ZN7libsumoL12VAR_HAS_VIEWE:
	.long	167
	.section	.text._ZNSt12_Vector_baseINSt7__cxx1112basic_stringIcSt11char_traitsIcESaIcEEESaIS5_EE12_Vector_implD2Ev,"axG",@progbits,_ZNSt12_Vector_baseINSt7__cxx1112basic_stringIcSt11char_traitsIcESaIcEEESaIS5_EE12_Vector_implD5Ev,comdat
	.align 2
	.weak	_ZNSt12_Vector_baseINSt7__cxx1112basic_stringIcSt11char_traitsIcESaIcEEESaIS5_EE12_Vector_implD2Ev
	.type	_ZNSt12_Vector_baseINSt7__cxx1112basic_stringIcSt11char_traitsIcESaIcEEESaIS5_EE12_Vector_implD2Ev, @function
_ZNSt12_Vector_baseINSt7__cxx1112basic_stringIcSt11char_traitsIcESaIcEEESaIS5_EE12_Vector_implD2Ev:
.LFB3705:
	.cfi_startproc
	endbr64
	pushq	%rbp
	.cfi_def_cfa_offset 16
	.cfi_offset 6, -16
	movq	%rsp, %rbp
	.cfi_def_cfa_register 6
	subq	$16, %rsp
	movq	%rdi, -8(%rbp)
	movq	-8(%rbp), %rax
	movq	%rax, %rdi
	call	_ZNSaINSt7__cxx1112basic_stringIcSt11char_traitsIcESaIcEEEED2Ev
	nop
	leave
	.cfi_def_cfa 7, 8
	ret
	.cfi_endproc
.LFE3705:
	.size	_ZNSt12_Vector_baseINSt7__cxx1112basic_stringIcSt11char_traitsIcESaIcEEESaIS5_EE12_Vector_implD2Ev, .-_ZNSt12_Vector_baseINSt7__cxx1112basic_stringIcSt11char_traitsIcESaIcEEESaIS5_EE12_Vector_implD2Ev
	.weak	_ZNSt12_Vector_baseINSt7__cxx1112basic_stringIcSt11char_traitsIcESaIcEEESaIS5_EE12_Vector_implD1Ev
	.set	_ZNSt12_Vector_baseINSt7__cxx1112basic_stringIcSt11char_traitsIcESaIcEEESaIS5_EE12_Vector_implD1Ev,_ZNSt12_Vector_baseINSt7__cxx1112basic_stringIcSt11char_traitsIcESaIcEEESaIS5_EE12_Vector_implD2Ev
	.section	.text._ZNSt12_Vector_baseINSt7__cxx1112basic_stringIcSt11char_traitsIcESaIcEEESaIS5_EEC2Ev,"axG",@progbits,_ZNSt12_Vector_baseINSt7__cxx1112basic_stringIcSt11char_traitsIcESaIcEEESaIS5_EEC5Ev,comdat
	.align 2
	.weak	_ZNSt12_Vector_baseINSt7__cxx1112basic_stringIcSt11char_traitsIcESaIcEEESaIS5_EEC2Ev
	.type	_ZNSt12_Vector_baseINSt7__cxx1112basic_stringIcSt11char_traitsIcESaIcEEESaIS5_EEC2Ev, @function
_ZNSt12_Vector_baseINSt7__cxx1112basic_stringIcSt11char_traitsIcESaIcEEESaIS5_EEC2Ev:
.LFB3707:
	.cfi_startproc
	endbr64
	pushq	%rbp
	.cfi_def_cfa_offset 16
	.cfi_offset 6, -16
	movq	%rsp, %rbp
	.cfi_def_cfa_register 6
	subq	$16, %rsp
	movq	%rdi, -8(%rbp)
	movq	-8(%rbp), %rax
	movq	%rax, %rdi
	call	_ZNSt12_Vector_baseINSt7__cxx1112basic_stringIcSt11char_traitsIcESaIcEEESaIS5_EE12_Vector_implC1Ev
	nop
	leave
	.cfi_def_cfa 7, 8
	ret
	.cfi_endproc
.LFE3707:
	.size	_ZNSt12_Vector_baseINSt7__cxx1112basic_stringIcSt11char_traitsIcESaIcEEESaIS5_EEC2Ev, .-_ZNSt12_Vector_baseINSt7__cxx1112basic_stringIcSt11char_traitsIcESaIcEEESaIS5_EEC2Ev
	.weak	_ZNSt12_Vector_baseINSt7__cxx1112basic_stringIcSt11char_traitsIcESaIcEEESaIS5_EEC1Ev
	.set	_ZNSt12_Vector_baseINSt7__cxx1112basic_stringIcSt11char_traitsIcESaIcEEESaIS5_EEC1Ev,_ZNSt12_Vector_baseINSt7__cxx1112basic_stringIcSt11char_traitsIcESaIcEEESaIS5_EEC2Ev
	.section	.text._ZNSt6vectorINSt7__cxx1112basic_stringIcSt11char_traitsIcESaIcEEESaIS5_EEC2Ev,"axG",@progbits,_ZNSt6vectorINSt7__cxx1112basic_stringIcSt11char_traitsIcESaIcEEESaIS5_EEC5Ev,comdat
	.align 2
	.weak	_ZNSt6vectorINSt7__cxx1112basic_stringIcSt11char_traitsIcESaIcEEESaIS5_EEC2Ev
	.type	_ZNSt6vectorINSt7__cxx1112basic_stringIcSt11char_traitsIcESaIcEEESaIS5_EEC2Ev, @function
_ZNSt6vectorINSt7__cxx1112basic_stringIcSt11char_traitsIcESaIcEEESaIS5_EEC2Ev:
.LFB3709:
	.cfi_startproc
	endbr64
	pushq	%rbp
	.cfi_def_cfa_offset 16
	.cfi_offset 6, -16
	movq	%rsp, %rbp
	.cfi_def_cfa_register 6
	subq	$16, %rsp
	movq	%rdi, -8(%rbp)
	movq	-8(%rbp), %rax
	movq	%rax, %rdi
	call	_ZNSt12_Vector_baseINSt7__cxx1112basic_stringIcSt11char_traitsIcESaIcEEESaIS5_EEC2Ev
	nop
	leave
	.cfi_def_cfa 7, 8
	ret
	.cfi_endproc
.LFE3709:
	.size	_ZNSt6vectorINSt7__cxx1112basic_stringIcSt11char_traitsIcESaIcEEESaIS5_EEC2Ev, .-_ZNSt6vectorINSt7__cxx1112basic_stringIcSt11char_traitsIcESaIcEEESaIS5_EEC2Ev
	.weak	_ZNSt6vectorINSt7__cxx1112basic_stringIcSt11char_traitsIcESaIcEEESaIS5_EEC1Ev
	.set	_ZNSt6vectorINSt7__cxx1112basic_stringIcSt11char_traitsIcESaIcEEESaIS5_EEC1Ev,_ZNSt6vectorINSt7__cxx1112basic_stringIcSt11char_traitsIcESaIcEEESaIS5_EEC2Ev
	.section	.text._ZSt3minImERKT_S2_S2_,"axG",@progbits,_ZSt3minImERKT_S2_S2_,comdat
	.weak	_ZSt3minImERKT_S2_S2_
	.type	_ZSt3minImERKT_S2_S2_, @function
_ZSt3minImERKT_S2_S2_:
.LFB4269:
	.cfi_startproc
	endbr64
	pushq	%rbp
	.cfi_def_cfa_offset 16
	.cfi_offset 6, -16
	movq	%rsp, %rbp
	.cfi_def_cfa_register 6
	movq	%rdi, -8(%rbp)
	movq	%rsi, -16(%rbp)
	movq	-16(%rbp), %rax
	movq	(%rax), %rdx
	movq	-8(%rbp), %rax
	movq	(%rax), %rax
	cmpq	%rax, %rdx
	jnb	.L29
	movq	-16(%rbp), %rax
	jmp	.L30
.L29:
	movq	-8(%rbp), %rax
.L30:
	popq	%rbp
	.cfi_def_cfa 7, 8
	ret
	.cfi_endproc
.LFE4269:
	.size	_ZSt3minImERKT_S2_S2_, .-_ZSt3minImERKT_S2_S2_
	.section	.text._ZNSt12_Vector_baseISt10unique_ptrI15TrafficLightImpSt14default_deleteIS1_EESaIS4_EE12_Vector_implD2Ev,"axG",@progbits,_ZNSt12_Vector_baseISt10unique_ptrI15TrafficLightImpSt14default_deleteIS1_EESaIS4_EE12_Vector_implD5Ev,comdat
	.align 2
	.weak	_ZNSt12_Vector_baseISt10unique_ptrI15TrafficLightImpSt14default_deleteIS1_EESaIS4_EE12_Vector_implD2Ev
	.type	_ZNSt12_Vector_baseISt10unique_ptrI15TrafficLightImpSt14default_deleteIS1_EESaIS4_EE12_Vector_implD2Ev, @function
_ZNSt12_Vector_baseISt10unique_ptrI15TrafficLightImpSt14default_deleteIS1_EESaIS4_EE12_Vector_implD2Ev:
.LFB4790:
	.cfi_startproc
	endbr64
	pushq	%rbp
	.cfi_def_cfa_offset 16
	.cfi_offset 6, -16
	movq	%rsp, %rbp
	.cfi_def_cfa_register 6
	subq	$16, %rsp
	movq	%rdi, -8(%rbp)
	movq	-8(%rbp), %rax
	movq	%rax, %rdi
	call	_ZNSaISt10unique_ptrI15TrafficLightImpSt14default_deleteIS0_EEED2Ev
	nop
	leave
	.cfi_def_cfa 7, 8
	ret
	.cfi_endproc
.LFE4790:
	.size	_ZNSt12_Vector_baseISt10unique_ptrI15TrafficLightImpSt14default_deleteIS1_EESaIS4_EE12_Vector_implD2Ev, .-_ZNSt12_Vector_baseISt10unique_ptrI15TrafficLightImpSt14default_deleteIS1_EESaIS4_EE12_Vector_implD2Ev
	.weak	_ZNSt12_Vector_baseISt10unique_ptrI15TrafficLightImpSt14default_deleteIS1_EESaIS4_EE12_Vector_implD1Ev
	.set	_ZNSt12_Vector_baseISt10unique_ptrI15TrafficLightImpSt14default_deleteIS1_EESaIS4_EE12_Vector_implD1Ev,_ZNSt12_Vector_baseISt10unique_ptrI15TrafficLightImpSt14default_deleteIS1_EESaIS4_EE12_Vector_implD2Ev
	.section	.text._ZNSt12_Vector_baseISt10unique_ptrI15TrafficLightImpSt14default_deleteIS1_EESaIS4_EEC2Ev,"axG",@progbits,_ZNSt12_Vector_baseISt10unique_ptrI15TrafficLightImpSt14default_deleteIS1_EESaIS4_EEC5Ev,comdat
	.align 2
	.weak	_ZNSt12_Vector_baseISt10unique_ptrI15TrafficLightImpSt14default_deleteIS1_EESaIS4_EEC2Ev
	.type	_ZNSt12_Vector_baseISt10unique_ptrI15TrafficLightImpSt14default_deleteIS1_EESaIS4_EEC2Ev, @function
_ZNSt12_Vector_baseISt10unique_ptrI15TrafficLightImpSt14default_deleteIS1_EESaIS4_EEC2Ev:
.LFB4792:
	.cfi_startproc
	endbr64
	pushq	%rbp
	.cfi_def_cfa_offset 16
	.cfi_offset 6, -16
	movq	%rsp, %rbp
	.cfi_def_cfa_register 6
	subq	$16, %rsp
	movq	%rdi, -8(%rbp)
	movq	-8(%rbp), %rax
	movq	%rax, %rdi
	call	_ZNSt12_Vector_baseISt10unique_ptrI15TrafficLightImpSt14default_deleteIS1_EESaIS4_EE12_Vector_implC1Ev
	nop
	leave
	.cfi_def_cfa 7, 8
	ret
	.cfi_endproc
.LFE4792:
	.size	_ZNSt12_Vector_baseISt10unique_ptrI15TrafficLightImpSt14default_deleteIS1_EESaIS4_EEC2Ev, .-_ZNSt12_Vector_baseISt10unique_ptrI15TrafficLightImpSt14default_deleteIS1_EESaIS4_EEC2Ev
	.weak	_ZNSt12_Vector_baseISt10unique_ptrI15TrafficLightImpSt14default_deleteIS1_EESaIS4_EEC1Ev
	.set	_ZNSt12_Vector_baseISt10unique_ptrI15TrafficLightImpSt14default_deleteIS1_EESaIS4_EEC1Ev,_ZNSt12_Vector_baseISt10unique_ptrI15TrafficLightImpSt14default_deleteIS1_EESaIS4_EEC2Ev
	.section	.text._ZNSt6vectorISt10unique_ptrI15TrafficLightImpSt14default_deleteIS1_EESaIS4_EEC2Ev,"axG",@progbits,_ZNSt6vectorISt10unique_ptrI15TrafficLightImpSt14default_deleteIS1_EESaIS4_EEC5Ev,comdat
	.align 2
	.weak	_ZNSt6vectorISt10unique_ptrI15TrafficLightImpSt14default_deleteIS1_EESaIS4_EEC2Ev
	.type	_ZNSt6vectorISt10unique_ptrI15TrafficLightImpSt14default_deleteIS1_EESaIS4_EEC2Ev, @function
_ZNSt6vectorISt10unique_ptrI15TrafficLightImpSt14default_deleteIS1_EESaIS4_EEC2Ev:
.LFB4794:
	.cfi_startproc
	endbr64
	pushq	%rbp
	.cfi_def_cfa_offset 16
	.cfi_offset 6, -16
	movq	%rsp, %rbp
	.cfi_def_cfa_register 6
	subq	$16, %rsp
	movq	%rdi, -8(%rbp)
	movq	-8(%rbp), %rax
	movq	%rax, %rdi
	call	_ZNSt12_Vector_baseISt10unique_ptrI15TrafficLightImpSt14default_deleteIS1_EESaIS4_EEC2Ev
	nop
	leave
	.cfi_def_cfa 7, 8
	ret
	.cfi_endproc
.LFE4794:
	.size	_ZNSt6vectorISt10unique_ptrI15TrafficLightImpSt14default_deleteIS1_EESaIS4_EEC2Ev, .-_ZNSt6vectorISt10unique_ptrI15TrafficLightImpSt14default_deleteIS1_EESaIS4_EEC2Ev
	.weak	_ZNSt6vectorISt10unique_ptrI15TrafficLightImpSt14default_deleteIS1_EESaIS4_EEC1Ev
	.set	_ZNSt6vectorISt10unique_ptrI15TrafficLightImpSt14default_deleteIS1_EESaIS4_EEC1Ev,_ZNSt6vectorISt10unique_ptrI15TrafficLightImpSt14default_deleteIS1_EESaIS4_EEC2Ev
	.section	.rodata
.LC0:
	.string	"-1"
.LC1:
	.string	"1000"
.LC2:
	.string	"true"
	.section	.text._ZN10SumoClientC2ERKNSt7__cxx1112basic_stringIcSt11char_traitsIcESaIcEEES7_S7_S7_ii,"axG",@progbits,_ZN10SumoClientC5ERKNSt7__cxx1112basic_stringIcSt11char_traitsIcESaIcEEES7_S7_S7_ii,comdat
	.align 2
	.weak	_ZN10SumoClientC2ERKNSt7__cxx1112basic_stringIcSt11char_traitsIcESaIcEEES7_S7_S7_ii
	.type	_ZN10SumoClientC2ERKNSt7__cxx1112basic_stringIcSt11char_traitsIcESaIcEEES7_S7_S7_ii, @function
_ZN10SumoClientC2ERKNSt7__cxx1112basic_stringIcSt11char_traitsIcESaIcEEES7_S7_S7_ii:
.LFB4796:
	.cfi_startproc
	.cfi_personality 0x9b,DW.ref.__gxx_personality_v0
	.cfi_lsda 0x1b,.LLSDA4796
	endbr64
	pushq	%rbp
	.cfi_def_cfa_offset 16
	.cfi_offset 6, -16
	movq	%rsp, %rbp
	.cfi_def_cfa_register 6
	pushq	%rbx
	subq	$72, %rsp
	.cfi_offset 3, -24
	movq	%rdi, -40(%rbp)
	movq	%rsi, -48(%rbp)
	movq	%rdx, -56(%rbp)
	movq	%rcx, -64(%rbp)
	movq	%r8, -72(%rbp)
	movl	%r9d, -76(%rbp)
	movq	%fs:40, %rax
	movq	%rax, -24(%rbp)
	xorl	%eax, %eax
	movq	-40(%rbp), %rax
	movq	-48(%rbp), %rdx
	movq	%rdx, %rsi
	movq	%rax, %rdi
.LEHB3:
	call	_ZNSt7__cxx1112basic_stringIcSt11char_traitsIcESaIcEEC1ERKS4_@PLT
.LEHE3:
	movq	-40(%rbp), %rax
	leaq	32(%rax), %rdx
	movq	-56(%rbp), %rax
	movq	%rax, %rsi
	movq	%rdx, %rdi
.LEHB4:
	call	_ZNSt7__cxx1112basic_stringIcSt11char_traitsIcESaIcEEC1ERKS4_@PLT
.LEHE4:
	movq	-40(%rbp), %rax
	leaq	64(%rax), %rdx
	movq	-64(%rbp), %rax
	movq	%rax, %rsi
	movq	%rdx, %rdi
.LEHB5:
	call	_ZNSt7__cxx1112basic_stringIcSt11char_traitsIcESaIcEEC1ERKS4_@PLT
.LEHE5:
	movq	-40(%rbp), %rax
	leaq	96(%rax), %rdx
	movq	-72(%rbp), %rax
	movq	%rax, %rsi
	movq	%rdx, %rdi
.LEHB6:
	call	_ZNSt7__cxx1112basic_stringIcSt11char_traitsIcESaIcEEC1ERKS4_@PLT
.LEHE6:
	movq	-40(%rbp), %rax
	movl	-76(%rbp), %edx
	movl	%edx, 128(%rax)
	movq	-40(%rbp), %rax
	movl	16(%rbp), %edx
	movl	%edx, 132(%rax)
	movq	-40(%rbp), %rax
	leaq	136(%rax), %rbx
	leaq	-25(%rbp), %rax
	movq	%rax, %rdi
	call	_ZNSaIcEC1Ev@PLT
	leaq	-25(%rbp), %rax
	movq	%rax, %rdx
	leaq	.LC0(%rip), %rax
	movq	%rax, %rsi
	movq	%rbx, %rdi
.LEHB7:
	call	_ZNSt7__cxx1112basic_stringIcSt11char_traitsIcESaIcEEC1IS3_EEPKcRKS3_
.LEHE7:
	leaq	-25(%rbp), %rax
	movq	%rax, %rdi
	call	_ZNSaIcED1Ev@PLT
	movq	-40(%rbp), %rax
	leaq	168(%rax), %rbx
	leaq	-25(%rbp), %rax
	movq	%rax, %rdi
	call	_ZNSaIcEC1Ev@PLT
	leaq	-25(%rbp), %rax
	movq	%rax, %rdx
	leaq	.LC1(%rip), %rax
	movq	%rax, %rsi
	movq	%rbx, %rdi
.LEHB8:
	call	_ZNSt7__cxx1112basic_stringIcSt11char_traitsIcESaIcEEC1IS3_EEPKcRKS3_
.LEHE8:
	leaq	-25(%rbp), %rax
	movq	%rax, %rdi
	call	_ZNSaIcED1Ev@PLT
	movq	-40(%rbp), %rax
	leaq	200(%rax), %rbx
	leaq	-25(%rbp), %rax
	movq	%rax, %rdi
	call	_ZNSaIcEC1Ev@PLT
	leaq	-25(%rbp), %rax
	movq	%rax, %rdx
	leaq	.LC0(%rip), %rax
	movq	%rax, %rsi
	movq	%rbx, %rdi
.LEHB9:
	call	_ZNSt7__cxx1112basic_stringIcSt11char_traitsIcESaIcEEC1IS3_EEPKcRKS3_
.LEHE9:
	leaq	-25(%rbp), %rax
	movq	%rax, %rdi
	call	_ZNSaIcED1Ev@PLT
	movq	-40(%rbp), %rax
	leaq	232(%rax), %rbx
	leaq	-25(%rbp), %rax
	movq	%rax, %rdi
	call	_ZNSaIcEC1Ev@PLT
	leaq	-25(%rbp), %rax
	movq	%rax, %rdx
	leaq	.LC2(%rip), %rax
	movq	%rax, %rsi
	movq	%rbx, %rdi
.LEHB10:
	call	_ZNSt7__cxx1112basic_stringIcSt11char_traitsIcESaIcEEC1IS3_EEPKcRKS3_
.LEHE10:
	leaq	-25(%rbp), %rax
	movq	%rax, %rdi
	call	_ZNSaIcED1Ev@PLT
	movq	-40(%rbp), %rax
	addq	$264, %rax
	movq	%rax, %rdi
	call	_ZNSt6vectorINSt7__cxx1112basic_stringIcSt11char_traitsIcESaIcEEESaIS5_EEC1Ev
	movq	-40(%rbp), %rax
	addq	$288, %rax
	movq	%rax, %rdi
	call	_ZNSt6vectorISt10unique_ptrI15TrafficLightImpSt14default_deleteIS1_EESaIS4_EEC1Ev
	movq	-40(%rbp), %rax
	movq	%rax, %rdi
.LEHB11:
	call	_ZN10SumoClient17ProcessSimulationEv
.LEHE11:
	jmp	.L56
.L51:
	endbr64
	movq	%rax, %rbx
	leaq	-25(%rbp), %rax
	movq	%rax, %rdi
	call	_ZNSaIcED1Ev@PLT
	jmp	.L36
.L52:
	endbr64
	movq	%rax, %rbx
	leaq	-25(%rbp), %rax
	movq	%rax, %rdi
	call	_ZNSaIcED1Ev@PLT
	jmp	.L38
.L53:
	endbr64
	movq	%rax, %rbx
	leaq	-25(%rbp), %rax
	movq	%rax, %rdi
	call	_ZNSaIcED1Ev@PLT
	jmp	.L40
.L54:
	endbr64
	movq	%rax, %rbx
	leaq	-25(%rbp), %rax
	movq	%rax, %rdi
	call	_ZNSaIcED1Ev@PLT
	jmp	.L42
.L55:
	endbr64
	movq	%rax, %rbx
	movq	-40(%rbp), %rax
	addq	$288, %rax
	movq	%rax, %rdi
	call	_ZNSt6vectorISt10unique_ptrI15TrafficLightImpSt14default_deleteIS1_EESaIS4_EED1Ev
	movq	-40(%rbp), %rax
	addq	$264, %rax
	movq	%rax, %rdi
	call	_ZNSt6vectorINSt7__cxx1112basic_stringIcSt11char_traitsIcESaIcEEESaIS5_EED1Ev
	movq	-40(%rbp), %rax
	addq	$232, %rax
	movq	%rax, %rdi
	call	_ZNSt7__cxx1112basic_stringIcSt11char_traitsIcESaIcEED1Ev@PLT
.L42:
	movq	-40(%rbp), %rax
	addq	$200, %rax
	movq	%rax, %rdi
	call	_ZNSt7__cxx1112basic_stringIcSt11char_traitsIcESaIcEED1Ev@PLT
.L40:
	movq	-40(%rbp), %rax
	addq	$168, %rax
	movq	%rax, %rdi
	call	_ZNSt7__cxx1112basic_stringIcSt11char_traitsIcESaIcEED1Ev@PLT
.L38:
	movq	-40(%rbp), %rax
	addq	$136, %rax
	movq	%rax, %rdi
	call	_ZNSt7__cxx1112basic_stringIcSt11char_traitsIcESaIcEED1Ev@PLT
.L36:
	movq	-40(%rbp), %rax
	addq	$96, %rax
	movq	%rax, %rdi
	call	_ZNSt7__cxx1112basic_stringIcSt11char_traitsIcESaIcEED1Ev@PLT
	jmp	.L44
.L50:
	endbr64
	movq	%rax, %rbx
.L44:
	movq	-40(%rbp), %rax
	addq	$64, %rax
	movq	%rax, %rdi
	call	_ZNSt7__cxx1112basic_stringIcSt11char_traitsIcESaIcEED1Ev@PLT
	jmp	.L45
.L49:
	endbr64
	movq	%rax, %rbx
.L45:
	movq	-40(%rbp), %rax
	addq	$32, %rax
	movq	%rax, %rdi
	call	_ZNSt7__cxx1112basic_stringIcSt11char_traitsIcESaIcEED1Ev@PLT
	jmp	.L46
.L48:
	endbr64
	movq	%rax, %rbx
.L46:
	movq	-40(%rbp), %rax
	movq	%rax, %rdi
	call	_ZNSt7__cxx1112basic_stringIcSt11char_traitsIcESaIcEED1Ev@PLT
	movq	%rbx, %rax
	movq	%rax, %rdi
.LEHB12:
	call	_Unwind_Resume@PLT
.LEHE12:
.L56:
	movq	-24(%rbp), %rax
	subq	%fs:40, %rax
	je	.L47
	call	__stack_chk_fail@PLT
.L47:
	movq	-8(%rbp), %rbx
	leave
	.cfi_def_cfa 7, 8
	ret
	.cfi_endproc
.LFE4796:
	.section	.gcc_except_table._ZN10SumoClientC2ERKNSt7__cxx1112basic_stringIcSt11char_traitsIcESaIcEEES7_S7_S7_ii,"aG",@progbits,_ZN10SumoClientC5ERKNSt7__cxx1112basic_stringIcSt11char_traitsIcESaIcEEES7_S7_S7_ii,comdat
.LLSDA4796:
	.byte	0xff
	.byte	0xff
	.byte	0x1
	.uleb128 .LLSDACSE4796-.LLSDACSB4796
.LLSDACSB4796:
	.uleb128 .LEHB3-.LFB4796
	.uleb128 .LEHE3-.LEHB3
	.uleb128 0
	.uleb128 0
	.uleb128 .LEHB4-.LFB4796
	.uleb128 .LEHE4-.LEHB4
	.uleb128 .L48-.LFB4796
	.uleb128 0
	.uleb128 .LEHB5-.LFB4796
	.uleb128 .LEHE5-.LEHB5
	.uleb128 .L49-.LFB4796
	.uleb128 0
	.uleb128 .LEHB6-.LFB4796
	.uleb128 .LEHE6-.LEHB6
	.uleb128 .L50-.LFB4796
	.uleb128 0
	.uleb128 .LEHB7-.LFB4796
	.uleb128 .LEHE7-.LEHB7
	.uleb128 .L51-.LFB4796
	.uleb128 0
	.uleb128 .LEHB8-.LFB4796
	.uleb128 .LEHE8-.LEHB8
	.uleb128 .L52-.LFB4796
	.uleb128 0
	.uleb128 .LEHB9-.LFB4796
	.uleb128 .LEHE9-.LEHB9
	.uleb128 .L53-.LFB4796
	.uleb128 0
	.uleb128 .LEHB10-.LFB4796
	.uleb128 .LEHE10-.LEHB10
	.uleb128 .L54-.LFB4796
	.uleb128 0
	.uleb128 .LEHB11-.LFB4796
	.uleb128 .LEHE11-.LEHB11
	.uleb128 .L55-.LFB4796
	.uleb128 0
	.uleb128 .LEHB12-.LFB4796
	.uleb128 .LEHE12-.LEHB12
	.uleb128 0
	.uleb128 0
.LLSDACSE4796:
	.section	.text._ZN10SumoClientC2ERKNSt7__cxx1112basic_stringIcSt11char_traitsIcESaIcEEES7_S7_S7_ii,"axG",@progbits,_ZN10SumoClientC5ERKNSt7__cxx1112basic_stringIcSt11char_traitsIcESaIcEEES7_S7_S7_ii,comdat
	.size	_ZN10SumoClientC2ERKNSt7__cxx1112basic_stringIcSt11char_traitsIcESaIcEEES7_S7_S7_ii, .-_ZN10SumoClientC2ERKNSt7__cxx1112basic_stringIcSt11char_traitsIcESaIcEEES7_S7_S7_ii
	.weak	_ZN10SumoClientC1ERKNSt7__cxx1112basic_stringIcSt11char_traitsIcESaIcEEES7_S7_S7_ii
	.set	_ZN10SumoClientC1ERKNSt7__cxx1112basic_stringIcSt11char_traitsIcESaIcEEES7_S7_S7_ii,_ZN10SumoClientC2ERKNSt7__cxx1112basic_stringIcSt11char_traitsIcESaIcEEES7_S7_S7_ii
	.section	.text._ZNSt4pairIiNSt7__cxx1112basic_stringIcSt11char_traitsIcESaIcEEEED2Ev,"axG",@progbits,_ZNSt4pairIiNSt7__cxx1112basic_stringIcSt11char_traitsIcESaIcEEEED5Ev,comdat
	.align 2
	.weak	_ZNSt4pairIiNSt7__cxx1112basic_stringIcSt11char_traitsIcESaIcEEEED2Ev
	.type	_ZNSt4pairIiNSt7__cxx1112basic_stringIcSt11char_traitsIcESaIcEEEED2Ev, @function
_ZNSt4pairIiNSt7__cxx1112basic_stringIcSt11char_traitsIcESaIcEEEED2Ev:
.LFB4805:
	.cfi_startproc
	endbr64
	pushq	%rbp
	.cfi_def_cfa_offset 16
	.cfi_offset 6, -16
	movq	%rsp, %rbp
	.cfi_def_cfa_register 6
	subq	$16, %rsp
	movq	%rdi, -8(%rbp)
	movq	-8(%rbp), %rax
	addq	$8, %rax
	movq	%rax, %rdi
	call	_ZNSt7__cxx1112basic_stringIcSt11char_traitsIcESaIcEED1Ev@PLT
	nop
	leave
	.cfi_def_cfa 7, 8
	ret
	.cfi_endproc
.LFE4805:
	.size	_ZNSt4pairIiNSt7__cxx1112basic_stringIcSt11char_traitsIcESaIcEEEED2Ev, .-_ZNSt4pairIiNSt7__cxx1112basic_stringIcSt11char_traitsIcESaIcEEEED2Ev
	.weak	_ZNSt4pairIiNSt7__cxx1112basic_stringIcSt11char_traitsIcESaIcEEEED1Ev
	.set	_ZNSt4pairIiNSt7__cxx1112basic_stringIcSt11char_traitsIcESaIcEEEED1Ev,_ZNSt4pairIiNSt7__cxx1112basic_stringIcSt11char_traitsIcESaIcEEEED2Ev
	.section	.rodata
.LC3:
	.string	"-n"
.LC4:
	.string	"-r"
.LC5:
	.string	"-a"
.LC6:
	.string	"--max-depart-delay"
.LC7:
	.string	"--waiting-time-memory"
.LC8:
	.string	"--time-to-teleport"
.LC9:
	.string	"--no-warnings"
.LC10:
	.string	"--seed"
.LC11:
	.string	""
.LC12:
	.string	"default"
	.section	.text._ZN10SumoClient17ProcessSimulationEv,"axG",@progbits,_ZN10SumoClient17ProcessSimulationEv,comdat
	.align 2
	.weak	_ZN10SumoClient17ProcessSimulationEv
	.type	_ZN10SumoClient17ProcessSimulationEv, @function
_ZN10SumoClient17ProcessSimulationEv:
.LFB4798:
	.cfi_startproc
	.cfi_personality 0x9b,DW.ref.__gxx_personality_v0
	.cfi_lsda 0x1b,.LLSDA4798
	endbr64
	pushq	%rbp
	.cfi_def_cfa_offset 16
	.cfi_offset 6, -16
	movq	%rsp, %rbp
	.cfi_def_cfa_register 6
	pushq	%r13
	pushq	%r12
	pushq	%rbx
	subq	$664, %rsp
	.cfi_offset 13, -24
	.cfi_offset 12, -32
	.cfi_offset 3, -40
	movq	%rdi, -680(%rbp)
	movq	%fs:40, %rax
	movq	%rax, -40(%rbp)
	xorl	%eax, %eax
	movq	-680(%rbp), %rdx
	leaq	-592(%rbp), %rax
	movq	%rdx, %rsi
	movq	%rax, %rdi
.LEHB13:
	call	_ZNSt7__cxx1112basic_stringIcSt11char_traitsIcESaIcEEC1ERKS4_@PLT
.LEHE13:
	leaq	-664(%rbp), %rax
	movq	%rax, %rdi
	call	_ZNSaIcEC1Ev@PLT
	leaq	-664(%rbp), %rax
	leaq	-592(%rbp), %rdx
	leaq	32(%rdx), %rcx
	movq	%rax, %rdx
	leaq	.LC3(%rip), %rax
	movq	%rax, %rsi
	movq	%rcx, %rdi
.LEHB14:
	call	_ZNSt7__cxx1112basic_stringIcSt11char_traitsIcESaIcEEC1IS3_EEPKcRKS3_
	movq	-680(%rbp), %rax
	leaq	32(%rax), %rdx
	leaq	-592(%rbp), %rax
	addq	$64, %rax
	movq	%rdx, %rsi
	movq	%rax, %rdi
	call	_ZNSt7__cxx1112basic_stringIcSt11char_traitsIcESaIcEEC1ERKS4_@PLT
.LEHE14:
	leaq	-663(%rbp), %rax
	movq	%rax, %rdi
	call	_ZNSaIcEC1Ev@PLT
	leaq	-663(%rbp), %rax
	leaq	-592(%rbp), %rdx
	leaq	96(%rdx), %rcx
	movq	%rax, %rdx
	leaq	.LC4(%rip), %rax
	movq	%rax, %rsi
	movq	%rcx, %rdi
.LEHB15:
	call	_ZNSt7__cxx1112basic_stringIcSt11char_traitsIcESaIcEEC1IS3_EEPKcRKS3_
	movq	-680(%rbp), %rax
	leaq	64(%rax), %rdx
	leaq	-592(%rbp), %rax
	subq	$-128, %rax
	movq	%rdx, %rsi
	movq	%rax, %rdi
	call	_ZNSt7__cxx1112basic_stringIcSt11char_traitsIcESaIcEEC1ERKS4_@PLT
.LEHE15:
	leaq	-662(%rbp), %rax
	movq	%rax, %rdi
	call	_ZNSaIcEC1Ev@PLT
	leaq	-662(%rbp), %rax
	leaq	-592(%rbp), %rdx
	leaq	160(%rdx), %rcx
	movq	%rax, %rdx
	leaq	.LC5(%rip), %rax
	movq	%rax, %rsi
	movq	%rcx, %rdi
.LEHB16:
	call	_ZNSt7__cxx1112basic_stringIcSt11char_traitsIcESaIcEEC1IS3_EEPKcRKS3_
	movq	-680(%rbp), %rax
	leaq	96(%rax), %rdx
	leaq	-592(%rbp), %rax
	addq	$192, %rax
	movq	%rdx, %rsi
	movq	%rax, %rdi
	call	_ZNSt7__cxx1112basic_stringIcSt11char_traitsIcESaIcEEC1ERKS4_@PLT
.LEHE16:
	leaq	-661(%rbp), %rax
	movq	%rax, %rdi
	call	_ZNSaIcEC1Ev@PLT
	leaq	-661(%rbp), %rax
	leaq	-592(%rbp), %rdx
	leaq	224(%rdx), %rcx
	movq	%rax, %rdx
	leaq	.LC6(%rip), %rax
	movq	%rax, %rsi
	movq	%rcx, %rdi
.LEHB17:
	call	_ZNSt7__cxx1112basic_stringIcSt11char_traitsIcESaIcEEC1IS3_EEPKcRKS3_
	movq	-680(%rbp), %rax
	leaq	136(%rax), %rdx
	leaq	-592(%rbp), %rax
	addq	$256, %rax
	movq	%rdx, %rsi
	movq	%rax, %rdi
	call	_ZNSt7__cxx1112basic_stringIcSt11char_traitsIcESaIcEEC1ERKS4_@PLT
.LEHE17:
	leaq	-660(%rbp), %rax
	movq	%rax, %rdi
	call	_ZNSaIcEC1Ev@PLT
	leaq	-660(%rbp), %rax
	leaq	-592(%rbp), %rdx
	leaq	288(%rdx), %rcx
	movq	%rax, %rdx
	leaq	.LC7(%rip), %rax
	movq	%rax, %rsi
	movq	%rcx, %rdi
.LEHB18:
	call	_ZNSt7__cxx1112basic_stringIcSt11char_traitsIcESaIcEEC1IS3_EEPKcRKS3_
	movq	-680(%rbp), %rax
	leaq	168(%rax), %rdx
	leaq	-592(%rbp), %rax
	addq	$320, %rax
	movq	%rdx, %rsi
	movq	%rax, %rdi
	call	_ZNSt7__cxx1112basic_stringIcSt11char_traitsIcESaIcEEC1ERKS4_@PLT
.LEHE18:
	leaq	-659(%rbp), %rax
	movq	%rax, %rdi
	call	_ZNSaIcEC1Ev@PLT
	leaq	-659(%rbp), %rax
	leaq	-592(%rbp), %rdx
	leaq	352(%rdx), %rcx
	movq	%rax, %rdx
	leaq	.LC8(%rip), %rax
	movq	%rax, %rsi
	movq	%rcx, %rdi
.LEHB19:
	call	_ZNSt7__cxx1112basic_stringIcSt11char_traitsIcESaIcEEC1IS3_EEPKcRKS3_
	movq	-680(%rbp), %rax
	leaq	200(%rax), %rdx
	leaq	-592(%rbp), %rax
	addq	$384, %rax
	movq	%rdx, %rsi
	movq	%rax, %rdi
	call	_ZNSt7__cxx1112basic_stringIcSt11char_traitsIcESaIcEEC1ERKS4_@PLT
.LEHE19:
	leaq	-658(%rbp), %rax
	movq	%rax, %rdi
	call	_ZNSaIcEC1Ev@PLT
	leaq	-658(%rbp), %rax
	leaq	-592(%rbp), %rdx
	leaq	416(%rdx), %rcx
	movq	%rax, %rdx
	leaq	.LC9(%rip), %rax
	movq	%rax, %rsi
	movq	%rcx, %rdi
.LEHB20:
	call	_ZNSt7__cxx1112basic_stringIcSt11char_traitsIcESaIcEEC1IS3_EEPKcRKS3_
	movq	-680(%rbp), %rax
	leaq	232(%rax), %rdx
	leaq	-592(%rbp), %rax
	addq	$448, %rax
	movq	%rdx, %rsi
	movq	%rax, %rdi
	call	_ZNSt7__cxx1112basic_stringIcSt11char_traitsIcESaIcEEC1ERKS4_@PLT
.LEHE20:
	leaq	-657(%rbp), %rax
	movq	%rax, %rdi
	call	_ZNSaIcEC1Ev@PLT
	leaq	-657(%rbp), %rax
	leaq	-592(%rbp), %rdx
	leaq	480(%rdx), %rcx
	movq	%rax, %rdx
	leaq	.LC10(%rip), %rax
	movq	%rax, %rsi
	movq	%rcx, %rdi
.LEHB21:
	call	_ZNSt7__cxx1112basic_stringIcSt11char_traitsIcESaIcEEC1IS3_EEPKcRKS3_
	movq	-680(%rbp), %rax
	movl	132(%rax), %edx
	leaq	-80(%rbp), %rax
	movl	%edx, %esi
	movq	%rax, %rdi
	call	_ZNSt7__cxx119to_stringEi
.LEHE21:
	leaq	-592(%rbp), %rax
	movq	%rax, %r12
	movl	$17, %r13d
	movq	-680(%rbp), %rax
	addq	$264, %rax
	movq	%r12, %rsi
	movq	%r13, %rdi
	movq	%r12, %rcx
	movq	%r13, %rbx
	movq	%rbx, %rdx
	movq	%rax, %rdi
.LEHB22:
	call	_ZNSt6vectorINSt7__cxx1112basic_stringIcSt11char_traitsIcESaIcEEESaIS5_EEaSESt16initializer_listIS5_E
.LEHE22:
	leaq	-592(%rbp), %rbx
	addq	$544, %rbx
.L60:
	leaq	-592(%rbp), %rax
	cmpq	%rax, %rbx
	je	.L59
	subq	$32, %rbx
	movq	%rbx, %rdi
	call	_ZNSt7__cxx1112basic_stringIcSt11char_traitsIcESaIcEED1Ev@PLT
	jmp	.L60
.L59:
	leaq	-657(%rbp), %rax
	movq	%rax, %rdi
	call	_ZNSaIcED1Ev@PLT
	leaq	-658(%rbp), %rax
	movq	%rax, %rdi
	call	_ZNSaIcED1Ev@PLT
	leaq	-659(%rbp), %rax
	movq	%rax, %rdi
	call	_ZNSaIcED1Ev@PLT
	leaq	-660(%rbp), %rax
	movq	%rax, %rdi
	call	_ZNSaIcED1Ev@PLT
	leaq	-661(%rbp), %rax
	movq	%rax, %rdi
	call	_ZNSaIcED1Ev@PLT
	leaq	-662(%rbp), %rax
	movq	%rax, %rdi
	call	_ZNSaIcED1Ev@PLT
	leaq	-663(%rbp), %rax
	movq	%rax, %rdi
	call	_ZNSaIcED1Ev@PLT
	leaq	-664(%rbp), %rax
	movq	%rax, %rdi
	call	_ZNSaIcED1Ev@PLT
	leaq	-657(%rbp), %rax
	movq	%rax, %rdi
	call	_ZNSaIcEC1Ev@PLT
	leaq	-657(%rbp), %rdx
	leaq	-624(%rbp), %rax
	leaq	.LC11(%rip), %rcx
	movq	%rcx, %rsi
	movq	%rax, %rdi
.LEHB23:
	call	_ZNSt7__cxx1112basic_stringIcSt11char_traitsIcESaIcEEC1IS3_EEPKcRKS3_
.LEHE23:
	leaq	-658(%rbp), %rax
	movq	%rax, %rdi
	call	_ZNSaIcEC1Ev@PLT
	leaq	-658(%rbp), %rdx
	leaq	-656(%rbp), %rax
	leaq	.LC12(%rip), %rcx
	movq	%rcx, %rsi
	movq	%rax, %rdi
.LEHB24:
	call	_ZNSt7__cxx1112basic_stringIcSt11char_traitsIcESaIcEEC1IS3_EEPKcRKS3_
.LEHE24:
	movq	-680(%rbp), %rax
	leaq	264(%rax), %rsi
	leaq	-592(%rbp), %rax
	leaq	-656(%rbp), %rcx
	subq	$8, %rsp
	pushq	$0
	pushq	$1
	leaq	-624(%rbp), %rdx
	pushq	%rdx
	movl	$0, %r9d
	movq	%rcx, %r8
	movl	$60, %ecx
	movl	$-1, %edx
	movq	%rax, %rdi
.LEHB25:
	.cfi_escape 0x2e,0x20
	call	_ZN7libsumo10Simulation5startERKSt6vectorINSt7__cxx1112basic_stringIcSt11char_traitsIcESaIcEEESaIS7_EEiiRKS7_bSD_bPv@PLT
.LEHE25:
	addq	$32, %rsp
	leaq	-592(%rbp), %rax
	movq	%rax, %rdi
	call	_ZNSt4pairIiNSt7__cxx1112basic_stringIcSt11char_traitsIcESaIcEEEED1Ev
	leaq	-656(%rbp), %rax
	movq	%rax, %rdi
	call	_ZNSt7__cxx1112basic_stringIcSt11char_traitsIcESaIcEED1Ev@PLT
	leaq	-658(%rbp), %rax
	movq	%rax, %rdi
	call	_ZNSaIcED1Ev@PLT
	leaq	-624(%rbp), %rax
	movq	%rax, %rdi
	call	_ZNSt7__cxx1112basic_stringIcSt11char_traitsIcESaIcEED1Ev@PLT
	leaq	-657(%rbp), %rax
	movq	%rax, %rdi
	call	_ZNSaIcED1Ev@PLT
	nop
	movq	-40(%rbp), %rax
	subq	%fs:40, %rax
	je	.L75
	jmp	.L88
.L84:
	endbr64
	movq	%rax, %r12
	leaq	-592(%rbp), %rbx
	addq	$544, %rbx
.L63:
	leaq	-592(%rbp), %rax
	cmpq	%rax, %rbx
	je	.L62
	subq	$32, %rbx
	movq	%rbx, %rdi
	call	_ZNSt7__cxx1112basic_stringIcSt11char_traitsIcESaIcEED1Ev@PLT
	jmp	.L63
.L62:
	movq	%r12, %rbx
	jmp	.L64
.L83:
	endbr64
	movq	%rax, %rbx
.L64:
	leaq	-657(%rbp), %rax
	movq	%rax, %rdi
	call	_ZNSaIcED1Ev@PLT
	jmp	.L65
.L82:
	endbr64
	movq	%rax, %rbx
.L65:
	leaq	-658(%rbp), %rax
	movq	%rax, %rdi
	call	_ZNSaIcED1Ev@PLT
	jmp	.L66
.L81:
	endbr64
	movq	%rax, %rbx
.L66:
	leaq	-659(%rbp), %rax
	movq	%rax, %rdi
	call	_ZNSaIcED1Ev@PLT
	jmp	.L67
.L80:
	endbr64
	movq	%rax, %rbx
.L67:
	leaq	-660(%rbp), %rax
	movq	%rax, %rdi
	call	_ZNSaIcED1Ev@PLT
	jmp	.L68
.L79:
	endbr64
	movq	%rax, %rbx
.L68:
	leaq	-661(%rbp), %rax
	movq	%rax, %rdi
	call	_ZNSaIcED1Ev@PLT
	jmp	.L69
.L78:
	endbr64
	movq	%rax, %rbx
.L69:
	leaq	-662(%rbp), %rax
	movq	%rax, %rdi
	call	_ZNSaIcED1Ev@PLT
	jmp	.L70
.L77:
	endbr64
	movq	%rax, %rbx
.L70:
	leaq	-663(%rbp), %rax
	movq	%rax, %rdi
	call	_ZNSaIcED1Ev@PLT
	jmp	.L71
.L76:
	endbr64
	movq	%rax, %rbx
.L71:
	leaq	-664(%rbp), %rax
	movq	%rax, %rdi
	call	_ZNSaIcED1Ev@PLT
	movq	%rbx, %rax
	movq	%rax, %rdi
.LEHB26:
	call	_Unwind_Resume@PLT
.L87:
	endbr64
	movq	%rax, %rbx
	leaq	-656(%rbp), %rax
	movq	%rax, %rdi
	call	_ZNSt7__cxx1112basic_stringIcSt11char_traitsIcESaIcEED1Ev@PLT
	jmp	.L73
.L86:
	endbr64
	movq	%rax, %rbx
.L73:
	leaq	-658(%rbp), %rax
	movq	%rax, %rdi
	call	_ZNSaIcED1Ev@PLT
	leaq	-624(%rbp), %rax
	movq	%rax, %rdi
	call	_ZNSt7__cxx1112basic_stringIcSt11char_traitsIcESaIcEED1Ev@PLT
	jmp	.L74
.L85:
	endbr64
	movq	%rax, %rbx
.L74:
	leaq	-657(%rbp), %rax
	movq	%rax, %rdi
	call	_ZNSaIcED1Ev@PLT
	movq	%rbx, %rax
	movq	%rax, %rdi
	call	_Unwind_Resume@PLT
.LEHE26:
.L88:
	call	__stack_chk_fail@PLT
.L75:
	leaq	-24(%rbp), %rsp
	popq	%rbx
	popq	%r12
	popq	%r13
	popq	%rbp
	.cfi_def_cfa 7, 8
	ret
	.cfi_endproc
.LFE4798:
	.section	.gcc_except_table._ZN10SumoClient17ProcessSimulationEv,"aG",@progbits,_ZN10SumoClient17ProcessSimulationEv,comdat
.LLSDA4798:
	.byte	0xff
	.byte	0xff
	.byte	0x1
	.uleb128 .LLSDACSE4798-.LLSDACSB4798
.LLSDACSB4798:
	.uleb128 .LEHB13-.LFB4798
	.uleb128 .LEHE13-.LEHB13
	.uleb128 0
	.uleb128 0
	.uleb128 .LEHB14-.LFB4798
	.uleb128 .LEHE14-.LEHB14
	.uleb128 .L76-.LFB4798
	.uleb128 0
	.uleb128 .LEHB15-.LFB4798
	.uleb128 .LEHE15-.LEHB15
	.uleb128 .L77-.LFB4798
	.uleb128 0
	.uleb128 .LEHB16-.LFB4798
	.uleb128 .LEHE16-.LEHB16
	.uleb128 .L78-.LFB4798
	.uleb128 0
	.uleb128 .LEHB17-.LFB4798
	.uleb128 .LEHE17-.LEHB17
	.uleb128 .L79-.LFB4798
	.uleb128 0
	.uleb128 .LEHB18-.LFB4798
	.uleb128 .LEHE18-.LEHB18
	.uleb128 .L80-.LFB4798
	.uleb128 0
	.uleb128 .LEHB19-.LFB4798
	.uleb128 .LEHE19-.LEHB19
	.uleb128 .L81-.LFB4798
	.uleb128 0
	.uleb128 .LEHB20-.LFB4798
	.uleb128 .LEHE20-.LEHB20
	.uleb128 .L82-.LFB4798
	.uleb128 0
	.uleb128 .LEHB21-.LFB4798
	.uleb128 .LEHE21-.LEHB21
	.uleb128 .L83-.LFB4798
	.uleb128 0
	.uleb128 .LEHB22-.LFB4798
	.uleb128 .LEHE22-.LEHB22
	.uleb128 .L84-.LFB4798
	.uleb128 0
	.uleb128 .LEHB23-.LFB4798
	.uleb128 .LEHE23-.LEHB23
	.uleb128 .L85-.LFB4798
	.uleb128 0
	.uleb128 .LEHB24-.LFB4798
	.uleb128 .LEHE24-.LEHB24
	.uleb128 .L86-.LFB4798
	.uleb128 0
	.uleb128 .LEHB25-.LFB4798
	.uleb128 .LEHE25-.LEHB25
	.uleb128 .L87-.LFB4798
	.uleb128 0
	.uleb128 .LEHB26-.LFB4798
	.uleb128 .LEHE26-.LEHB26
	.uleb128 0
	.uleb128 0
.LLSDACSE4798:
	.section	.text._ZN10SumoClient17ProcessSimulationEv,"axG",@progbits,_ZN10SumoClient17ProcessSimulationEv,comdat
	.size	_ZN10SumoClient17ProcessSimulationEv, .-_ZN10SumoClient17ProcessSimulationEv
	.section	.text._ZN10SumoClientD2Ev,"axG",@progbits,_ZN10SumoClientD5Ev,comdat
	.align 2
	.weak	_ZN10SumoClientD2Ev
	.type	_ZN10SumoClientD2Ev, @function
_ZN10SumoClientD2Ev:
.LFB4820:
	.cfi_startproc
	endbr64
	pushq	%rbp
	.cfi_def_cfa_offset 16
	.cfi_offset 6, -16
	movq	%rsp, %rbp
	.cfi_def_cfa_register 6
	subq	$16, %rsp
	movq	%rdi, -8(%rbp)
	movq	-8(%rbp), %rax
	addq	$288, %rax
	movq	%rax, %rdi
	call	_ZNSt6vectorISt10unique_ptrI15TrafficLightImpSt14default_deleteIS1_EESaIS4_EED1Ev
	movq	-8(%rbp), %rax
	addq	$264, %rax
	movq	%rax, %rdi
	call	_ZNSt6vectorINSt7__cxx1112basic_stringIcSt11char_traitsIcESaIcEEESaIS5_EED1Ev
	movq	-8(%rbp), %rax
	addq	$232, %rax
	movq	%rax, %rdi
	call	_ZNSt7__cxx1112basic_stringIcSt11char_traitsIcESaIcEED1Ev@PLT
	movq	-8(%rbp), %rax
	addq	$200, %rax
	movq	%rax, %rdi
	call	_ZNSt7__cxx1112basic_stringIcSt11char_traitsIcESaIcEED1Ev@PLT
	movq	-8(%rbp), %rax
	addq	$168, %rax
	movq	%rax, %rdi
	call	_ZNSt7__cxx1112basic_stringIcSt11char_traitsIcESaIcEED1Ev@PLT
	movq	-8(%rbp), %rax
	addq	$136, %rax
	movq	%rax, %rdi
	call	_ZNSt7__cxx1112basic_stringIcSt11char_traitsIcESaIcEED1Ev@PLT
	movq	-8(%rbp), %rax
	addq	$96, %rax
	movq	%rax, %rdi
	call	_ZNSt7__cxx1112basic_stringIcSt11char_traitsIcESaIcEED1Ev@PLT
	movq	-8(%rbp), %rax
	addq	$64, %rax
	movq	%rax, %rdi
	call	_ZNSt7__cxx1112basic_stringIcSt11char_traitsIcESaIcEED1Ev@PLT
	movq	-8(%rbp), %rax
	addq	$32, %rax
	movq	%rax, %rdi
	call	_ZNSt7__cxx1112basic_stringIcSt11char_traitsIcESaIcEED1Ev@PLT
	movq	-8(%rbp), %rax
	movq	%rax, %rdi
	call	_ZNSt7__cxx1112basic_stringIcSt11char_traitsIcESaIcEED1Ev@PLT
	nop
	leave
	.cfi_def_cfa 7, 8
	ret
	.cfi_endproc
.LFE4820:
	.size	_ZN10SumoClientD2Ev, .-_ZN10SumoClientD2Ev
	.weak	_ZN10SumoClientD1Ev
	.set	_ZN10SumoClientD1Ev,_ZN10SumoClientD2Ev
	.section	.rodata
.LC13:
	.string	"4_4.add.xml"
.LC14:
	.string	"./4_4_high.rou.xml"
.LC15:
	.string	"./4_4.net.xml"
.LC16:
	.string	"/usr/bin/sumo"
	.text
	.globl	main
	.type	main, @function
main:
.LFB4818:
	.cfi_startproc
	.cfi_personality 0x9b,DW.ref.__gxx_personality_v0
	.cfi_lsda 0x1b,.LLSDA4818
	endbr64
	pushq	%rbp
	.cfi_def_cfa_offset 16
	.cfi_offset 6, -16
	movq	%rsp, %rbp
	.cfi_def_cfa_register 6
	pushq	%rbx
	subq	$488, %rsp
	.cfi_offset 3, -24
	movq	%fs:40, %rax
	movq	%rax, -24(%rbp)
	xorl	%eax, %eax
	leaq	-481(%rbp), %rax
	movq	%rax, %rdi
	call	_ZNSaIcEC1Ev@PLT
	leaq	-481(%rbp), %rdx
	leaq	-384(%rbp), %rax
	leaq	.LC13(%rip), %rcx
	movq	%rcx, %rsi
	movq	%rax, %rdi
.LEHB27:
	call	_ZNSt7__cxx1112basic_stringIcSt11char_traitsIcESaIcEEC1IS3_EEPKcRKS3_
.LEHE27:
	leaq	-482(%rbp), %rax
	movq	%rax, %rdi
	call	_ZNSaIcEC1Ev@PLT
	leaq	-482(%rbp), %rdx
	leaq	-416(%rbp), %rax
	leaq	.LC14(%rip), %rcx
	movq	%rcx, %rsi
	movq	%rax, %rdi
.LEHB28:
	call	_ZNSt7__cxx1112basic_stringIcSt11char_traitsIcESaIcEEC1IS3_EEPKcRKS3_
.LEHE28:
	leaq	-483(%rbp), %rax
	movq	%rax, %rdi
	call	_ZNSaIcEC1Ev@PLT
	leaq	-483(%rbp), %rdx
	leaq	-448(%rbp), %rax
	leaq	.LC15(%rip), %rcx
	movq	%rcx, %rsi
	movq	%rax, %rdi
.LEHB29:
	call	_ZNSt7__cxx1112basic_stringIcSt11char_traitsIcESaIcEEC1IS3_EEPKcRKS3_
.LEHE29:
	leaq	-484(%rbp), %rax
	movq	%rax, %rdi
	call	_ZNSaIcEC1Ev@PLT
	leaq	-484(%rbp), %rdx
	leaq	-480(%rbp), %rax
	leaq	.LC16(%rip), %rcx
	movq	%rcx, %rsi
	movq	%rax, %rdi
.LEHB30:
	call	_ZNSt7__cxx1112basic_stringIcSt11char_traitsIcESaIcEEC1IS3_EEPKcRKS3_
.LEHE30:
	leaq	-384(%rbp), %rdi
	leaq	-416(%rbp), %rcx
	leaq	-448(%rbp), %rdx
	leaq	-480(%rbp), %rsi
	leaq	-352(%rbp), %rax
	subq	$8, %rsp
	pushq	$42
	movl	$3, %r9d
	movq	%rdi, %r8
	movq	%rax, %rdi
.LEHB31:
	.cfi_escape 0x2e,0x10
	call	_ZN10SumoClientC1ERKNSt7__cxx1112basic_stringIcSt11char_traitsIcESaIcEEES7_S7_S7_ii
.LEHE31:
	addq	$16, %rsp
	leaq	-480(%rbp), %rax
	movq	%rax, %rdi
	call	_ZNSt7__cxx1112basic_stringIcSt11char_traitsIcESaIcEED1Ev@PLT
	leaq	-484(%rbp), %rax
	movq	%rax, %rdi
	call	_ZNSaIcED1Ev@PLT
	leaq	-448(%rbp), %rax
	movq	%rax, %rdi
	call	_ZNSt7__cxx1112basic_stringIcSt11char_traitsIcESaIcEED1Ev@PLT
	leaq	-483(%rbp), %rax
	movq	%rax, %rdi
	call	_ZNSaIcED1Ev@PLT
	leaq	-416(%rbp), %rax
	movq	%rax, %rdi
	call	_ZNSt7__cxx1112basic_stringIcSt11char_traitsIcESaIcEED1Ev@PLT
	leaq	-482(%rbp), %rax
	movq	%rax, %rdi
	call	_ZNSaIcED1Ev@PLT
	leaq	-384(%rbp), %rax
	movq	%rax, %rdi
	call	_ZNSt7__cxx1112basic_stringIcSt11char_traitsIcESaIcEED1Ev@PLT
	leaq	-481(%rbp), %rax
	movq	%rax, %rdi
	call	_ZNSaIcED1Ev@PLT
	leaq	-352(%rbp), %rax
	movq	%rax, %rdi
	call	_ZN10SumoClientD1Ev
	movl	$0, %eax
	movq	-24(%rbp), %rdx
	subq	%fs:40, %rdx
	je	.L97
	jmp	.L103
.L102:
	endbr64
	movq	%rax, %rbx
	leaq	-480(%rbp), %rax
	movq	%rax, %rdi
	call	_ZNSt7__cxx1112basic_stringIcSt11char_traitsIcESaIcEED1Ev@PLT
	jmp	.L93
.L101:
	endbr64
	movq	%rax, %rbx
.L93:
	leaq	-484(%rbp), %rax
	movq	%rax, %rdi
	call	_ZNSaIcED1Ev@PLT
	leaq	-448(%rbp), %rax
	movq	%rax, %rdi
	call	_ZNSt7__cxx1112basic_stringIcSt11char_traitsIcESaIcEED1Ev@PLT
	jmp	.L94
.L100:
	endbr64
	movq	%rax, %rbx
.L94:
	leaq	-483(%rbp), %rax
	movq	%rax, %rdi
	call	_ZNSaIcED1Ev@PLT
	leaq	-416(%rbp), %rax
	movq	%rax, %rdi
	call	_ZNSt7__cxx1112basic_stringIcSt11char_traitsIcESaIcEED1Ev@PLT
	jmp	.L95
.L99:
	endbr64
	movq	%rax, %rbx
.L95:
	leaq	-482(%rbp), %rax
	movq	%rax, %rdi
	call	_ZNSaIcED1Ev@PLT
	leaq	-384(%rbp), %rax
	movq	%rax, %rdi
	call	_ZNSt7__cxx1112basic_stringIcSt11char_traitsIcESaIcEED1Ev@PLT
	jmp	.L96
.L98:
	endbr64
	movq	%rax, %rbx
.L96:
	leaq	-481(%rbp), %rax
	movq	%rax, %rdi
	call	_ZNSaIcED1Ev@PLT
	movq	%rbx, %rax
	movq	%rax, %rdi
.LEHB32:
	call	_Unwind_Resume@PLT
.LEHE32:
.L103:
	call	__stack_chk_fail@PLT
.L97:
	movq	-8(%rbp), %rbx
	leave
	.cfi_def_cfa 7, 8
	ret
	.cfi_endproc
.LFE4818:
	.section	.gcc_except_table,"a",@progbits
.LLSDA4818:
	.byte	0xff
	.byte	0xff
	.byte	0x1
	.uleb128 .LLSDACSE4818-.LLSDACSB4818
.LLSDACSB4818:
	.uleb128 .LEHB27-.LFB4818
	.uleb128 .LEHE27-.LEHB27
	.uleb128 .L98-.LFB4818
	.uleb128 0
	.uleb128 .LEHB28-.LFB4818
	.uleb128 .LEHE28-.LEHB28
	.uleb128 .L99-.LFB4818
	.uleb128 0
	.uleb128 .LEHB29-.LFB4818
	.uleb128 .LEHE29-.LEHB29
	.uleb128 .L100-.LFB4818
	.uleb128 0
	.uleb128 .LEHB30-.LFB4818
	.uleb128 .LEHE30-.LEHB30
	.uleb128 .L101-.LFB4818
	.uleb128 0
	.uleb128 .LEHB31-.LFB4818
	.uleb128 .LEHE31-.LEHB31
	.uleb128 .L102-.LFB4818
	.uleb128 0
	.uleb128 .LEHB32-.LFB4818
	.uleb128 .LEHE32-.LEHB32
	.uleb128 0
	.uleb128 0
.LLSDACSE4818:
	.text
	.size	main, .-main
	.section	.text._ZN9__gnu_cxx11char_traitsIcE2eqERKcS3_,"axG",@progbits,_ZN9__gnu_cxx11char_traitsIcE2eqERKcS3_,comdat
	.weak	_ZN9__gnu_cxx11char_traitsIcE2eqERKcS3_
	.type	_ZN9__gnu_cxx11char_traitsIcE2eqERKcS3_, @function
_ZN9__gnu_cxx11char_traitsIcE2eqERKcS3_:
.LFB4823:
	.cfi_startproc
	endbr64
	pushq	%rbp
	.cfi_def_cfa_offset 16
	.cfi_offset 6, -16
	movq	%rsp, %rbp
	.cfi_def_cfa_register 6
	movq	%rdi, -8(%rbp)
	movq	%rsi, -16(%rbp)
	movq	-8(%rbp), %rax
	movzbl	(%rax), %edx
	movq	-16(%rbp), %rax
	movzbl	(%rax), %eax
	cmpb	%al, %dl
	sete	%al
	popq	%rbp
	.cfi_def_cfa 7, 8
	ret
	.cfi_endproc
.LFE4823:
	.size	_ZN9__gnu_cxx11char_traitsIcE2eqERKcS3_, .-_ZN9__gnu_cxx11char_traitsIcE2eqERKcS3_
	.section	.text._ZN9__gnu_cxx11char_traitsIcE6lengthEPKc,"axG",@progbits,_ZN9__gnu_cxx11char_traitsIcE6lengthEPKc,comdat
	.align 2
	.weak	_ZN9__gnu_cxx11char_traitsIcE6lengthEPKc
	.type	_ZN9__gnu_cxx11char_traitsIcE6lengthEPKc, @function
_ZN9__gnu_cxx11char_traitsIcE6lengthEPKc:
.LFB4822:
	.cfi_startproc
	endbr64
	pushq	%rbp
	.cfi_def_cfa_offset 16
	.cfi_offset 6, -16
	movq	%rsp, %rbp
	.cfi_def_cfa_register 6
	subq	$48, %rsp
	movq	%rdi, -40(%rbp)
	movq	%fs:40, %rax
	movq	%rax, -8(%rbp)
	xorl	%eax, %eax
	movq	$0, -16(%rbp)
	jmp	.L107
.L108:
	addq	$1, -16(%rbp)
.L107:
	movb	$0, -17(%rbp)
	movq	-40(%rbp), %rdx
	movq	-16(%rbp), %rax
	addq	%rax, %rdx
	leaq	-17(%rbp), %rax
	movq	%rax, %rsi
	movq	%rdx, %rdi
	call	_ZN9__gnu_cxx11char_traitsIcE2eqERKcS3_
	xorl	$1, %eax
	testb	%al, %al
	jne	.L108
	movq	-16(%rbp), %rax
	movq	-8(%rbp), %rdx
	subq	%fs:40, %rdx
	je	.L110
	call	__stack_chk_fail@PLT
.L110:
	leave
	.cfi_def_cfa 7, 8
	ret
	.cfi_endproc
.LFE4822:
	.size	_ZN9__gnu_cxx11char_traitsIcE6lengthEPKc, .-_ZN9__gnu_cxx11char_traitsIcE6lengthEPKc
	.section	.text._ZNSt7__cxx1112basic_stringIcSt11char_traitsIcESaIcEE12_Alloc_hiderD2Ev,"axG",@progbits,_ZNSt7__cxx1112basic_stringIcSt11char_traitsIcESaIcEE12_Alloc_hiderD5Ev,comdat
	.align 2
	.weak	_ZNSt7__cxx1112basic_stringIcSt11char_traitsIcESaIcEE12_Alloc_hiderD2Ev
	.type	_ZNSt7__cxx1112basic_stringIcSt11char_traitsIcESaIcEE12_Alloc_hiderD2Ev, @function
_ZNSt7__cxx1112basic_stringIcSt11char_traitsIcESaIcEE12_Alloc_hiderD2Ev:
.LFB4930:
	.cfi_startproc
	endbr64
	pushq	%rbp
	.cfi_def_cfa_offset 16
	.cfi_offset 6, -16
	movq	%rsp, %rbp
	.cfi_def_cfa_register 6
	subq	$16, %rsp
	movq	%rdi, -8(%rbp)
	movq	-8(%rbp), %rax
	movq	%rax, %rdi
	call	_ZNSaIcED2Ev@PLT
	nop
	leave
	.cfi_def_cfa 7, 8
	ret
	.cfi_endproc
.LFE4930:
	.size	_ZNSt7__cxx1112basic_stringIcSt11char_traitsIcESaIcEE12_Alloc_hiderD2Ev, .-_ZNSt7__cxx1112basic_stringIcSt11char_traitsIcESaIcEE12_Alloc_hiderD2Ev
	.weak	_ZNSt7__cxx1112basic_stringIcSt11char_traitsIcESaIcEE12_Alloc_hiderD1Ev
	.set	_ZNSt7__cxx1112basic_stringIcSt11char_traitsIcESaIcEE12_Alloc_hiderD1Ev,_ZNSt7__cxx1112basic_stringIcSt11char_traitsIcESaIcEE12_Alloc_hiderD2Ev
	.section	.text._ZNSt7__cxx1112basic_stringIcSt11char_traitsIcESaIcEEC2IS3_EEmcRKS3_,"axG",@progbits,_ZNSt7__cxx1112basic_stringIcSt11char_traitsIcESaIcEEC5IS3_EEmcRKS3_,comdat
	.align 2
	.weak	_ZNSt7__cxx1112basic_stringIcSt11char_traitsIcESaIcEEC2IS3_EEmcRKS3_
	.type	_ZNSt7__cxx1112basic_stringIcSt11char_traitsIcESaIcEEC2IS3_EEmcRKS3_, @function
_ZNSt7__cxx1112basic_stringIcSt11char_traitsIcESaIcEEC2IS3_EEmcRKS3_:
.LFB4932:
	.cfi_startproc
	.cfi_personality 0x9b,DW.ref.__gxx_personality_v0
	.cfi_lsda 0x1b,.LLSDA4932
	endbr64
	pushq	%rbp
	.cfi_def_cfa_offset 16
	.cfi_offset 6, -16
	movq	%rsp, %rbp
	.cfi_def_cfa_register 6
	pushq	%rbx
	subq	$40, %rsp
	.cfi_offset 3, -24
	movq	%rdi, -24(%rbp)
	movq	%rsi, -32(%rbp)
	movl	%edx, %eax
	movq	%rcx, -48(%rbp)
	movb	%al, -36(%rbp)
	movq	-24(%rbp), %rbx
	movq	-24(%rbp), %rax
	movq	%rax, %rdi
.LEHB33:
	call	_ZNSt7__cxx1112basic_stringIcSt11char_traitsIcESaIcEE13_M_local_dataEv@PLT
	movq	%rax, %rcx
	movq	-48(%rbp), %rax
	movq	%rax, %rdx
	movq	%rcx, %rsi
	movq	%rbx, %rdi
	call	_ZNSt7__cxx1112basic_stringIcSt11char_traitsIcESaIcEE12_Alloc_hiderC1EPcRKS3_@PLT
.LEHE33:
	movsbl	-36(%rbp), %edx
	movq	-32(%rbp), %rcx
	movq	-24(%rbp), %rax
	movq	%rcx, %rsi
	movq	%rax, %rdi
.LEHB34:
	call	_ZNSt7__cxx1112basic_stringIcSt11char_traitsIcESaIcEE12_M_constructEmc@PLT
.LEHE34:
	jmp	.L115
.L114:
	endbr64
	movq	%rax, %rbx
	movq	-24(%rbp), %rax
	movq	%rax, %rdi
	call	_ZNSt7__cxx1112basic_stringIcSt11char_traitsIcESaIcEE12_Alloc_hiderD1Ev
	movq	%rbx, %rax
	movq	%rax, %rdi
.LEHB35:
	call	_Unwind_Resume@PLT
.LEHE35:
.L115:
	movq	-8(%rbp), %rbx
	leave
	.cfi_def_cfa 7, 8
	ret
	.cfi_endproc
.LFE4932:
	.section	.gcc_except_table
.LLSDA4932:
	.byte	0xff
	.byte	0xff
	.byte	0x1
	.uleb128 .LLSDACSE4932-.LLSDACSB4932
.LLSDACSB4932:
	.uleb128 .LEHB33-.LFB4932
	.uleb128 .LEHE33-.LEHB33
	.uleb128 0
	.uleb128 0
	.uleb128 .LEHB34-.LFB4932
	.uleb128 .LEHE34-.LEHB34
	.uleb128 .L114-.LFB4932
	.uleb128 0
	.uleb128 .LEHB35-.LFB4932
	.uleb128 .LEHE35-.LEHB35
	.uleb128 0
	.uleb128 0
.LLSDACSE4932:
	.section	.text._ZNSt7__cxx1112basic_stringIcSt11char_traitsIcESaIcEEC2IS3_EEmcRKS3_,"axG",@progbits,_ZNSt7__cxx1112basic_stringIcSt11char_traitsIcESaIcEEC5IS3_EEmcRKS3_,comdat
	.size	_ZNSt7__cxx1112basic_stringIcSt11char_traitsIcESaIcEEC2IS3_EEmcRKS3_, .-_ZNSt7__cxx1112basic_stringIcSt11char_traitsIcESaIcEEC2IS3_EEmcRKS3_
	.weak	_ZNSt7__cxx1112basic_stringIcSt11char_traitsIcESaIcEEC1IS3_EEmcRKS3_
	.set	_ZNSt7__cxx1112basic_stringIcSt11char_traitsIcESaIcEEC1IS3_EEmcRKS3_,_ZNSt7__cxx1112basic_stringIcSt11char_traitsIcESaIcEEC2IS3_EEmcRKS3_
	.weak	_ZZNSt8__detail18__to_chars_10_implIjEEvPcjT_E8__digits
	.section	.rodata._ZZNSt8__detail18__to_chars_10_implIjEEvPcjT_E8__digits,"aG",@progbits,_ZZNSt8__detail18__to_chars_10_implIjEEvPcjT_E8__digits,comdat
	.align 32
	.type	_ZZNSt8__detail18__to_chars_10_implIjEEvPcjT_E8__digits, @gnu_unique_object
	.size	_ZZNSt8__detail18__to_chars_10_implIjEEvPcjT_E8__digits, 201
_ZZNSt8__detail18__to_chars_10_implIjEEvPcjT_E8__digits:
	.string	"00010203040506070809101112131415161718192021222324252627282930313233343536373839404142434445464748495051525354555657585960616263646566676869707172737475767778798081828384858687888990919293949596979899"
	.section	.text._ZNSt8__detail18__to_chars_10_implIjEEvPcjT_,"axG",@progbits,_ZNSt8__detail18__to_chars_10_implIjEEvPcjT_,comdat
	.weak	_ZNSt8__detail18__to_chars_10_implIjEEvPcjT_
	.type	_ZNSt8__detail18__to_chars_10_implIjEEvPcjT_, @function
_ZNSt8__detail18__to_chars_10_implIjEEvPcjT_:
.LFB4938:
	.cfi_startproc
	endbr64
	pushq	%rbp
	.cfi_def_cfa_offset 16
	.cfi_offset 6, -16
	movq	%rsp, %rbp
	.cfi_def_cfa_register 6
	movq	%rdi, -24(%rbp)
	movl	%esi, -28(%rbp)
	movl	%edx, -32(%rbp)
	movl	-28(%rbp), %eax
	subl	$1, %eax
	movl	%eax, -12(%rbp)
	jmp	.L117
.L118:
	movl	-32(%rbp), %edx
	movl	%edx, %eax
	imulq	$1374389535, %rax, %rax
	shrq	$32, %rax
	shrl	$5, %eax
	imull	$100, %eax, %ecx
	movl	%edx, %eax
	subl	%ecx, %eax
	addl	%eax, %eax
	movl	%eax, -4(%rbp)
	movl	-32(%rbp), %eax
	movl	%eax, %eax
	imulq	$1374389535, %rax, %rax
	shrq	$32, %rax
	shrl	$5, %eax
	movl	%eax, -32(%rbp)
	movl	-4(%rbp), %eax
	leal	1(%rax), %ecx
	movl	-12(%rbp), %edx
	movq	-24(%rbp), %rax
	addq	%rax, %rdx
	movl	%ecx, %ecx
	leaq	_ZZNSt8__detail18__to_chars_10_implIjEEvPcjT_E8__digits(%rip), %rax
	movzbl	(%rcx,%rax), %eax
	movb	%al, (%rdx)
	movl	-12(%rbp), %eax
	subl	$1, %eax
	movl	%eax, %edx
	movq	-24(%rbp), %rax
	addq	%rax, %rdx
	movl	-4(%rbp), %eax
	leaq	_ZZNSt8__detail18__to_chars_10_implIjEEvPcjT_E8__digits(%rip), %rcx
	movzbl	(%rax,%rcx), %eax
	movb	%al, (%rdx)
	subl	$2, -12(%rbp)
.L117:
	cmpl	$99, -32(%rbp)
	ja	.L118
	cmpl	$9, -32(%rbp)
	jbe	.L119
	movl	-32(%rbp), %eax
	addl	%eax, %eax
	movl	%eax, -8(%rbp)
	movl	-8(%rbp), %eax
	leal	1(%rax), %ecx
	movq	-24(%rbp), %rax
	leaq	1(%rax), %rdx
	movl	%ecx, %ecx
	leaq	_ZZNSt8__detail18__to_chars_10_implIjEEvPcjT_E8__digits(%rip), %rax
	movzbl	(%rcx,%rax), %eax
	movb	%al, (%rdx)
	movl	-8(%rbp), %eax
	leaq	_ZZNSt8__detail18__to_chars_10_implIjEEvPcjT_E8__digits(%rip), %rdx
	movzbl	(%rax,%rdx), %edx
	movq	-24(%rbp), %rax
	movb	%dl, (%rax)
	jmp	.L121
.L119:
	movl	-32(%rbp), %eax
	addl	$48, %eax
	movl	%eax, %edx
	movq	-24(%rbp), %rax
	movb	%dl, (%rax)
.L121:
	nop
	popq	%rbp
	.cfi_def_cfa 7, 8
	ret
	.cfi_endproc
.LFE4938:
	.size	_ZNSt8__detail18__to_chars_10_implIjEEvPcjT_, .-_ZNSt8__detail18__to_chars_10_implIjEEvPcjT_
	.section	.text._ZNSt7__cxx1112basic_stringIcSt11char_traitsIcESaIcEEC2IS3_EEPKcRKS3_,"axG",@progbits,_ZNSt7__cxx1112basic_stringIcSt11char_traitsIcESaIcEEC5IS3_EEPKcRKS3_,comdat
	.align 2
	.weak	_ZNSt7__cxx1112basic_stringIcSt11char_traitsIcESaIcEEC2IS3_EEPKcRKS3_
	.type	_ZNSt7__cxx1112basic_stringIcSt11char_traitsIcESaIcEEC2IS3_EEPKcRKS3_, @function
_ZNSt7__cxx1112basic_stringIcSt11char_traitsIcESaIcEEC2IS3_EEPKcRKS3_:
.LFB5085:
	.cfi_startproc
	.cfi_personality 0x9b,DW.ref.__gxx_personality_v0
	.cfi_lsda 0x1b,.LLSDA5085
	endbr64
	pushq	%rbp
	.cfi_def_cfa_offset 16
	.cfi_offset 6, -16
	movq	%rsp, %rbp
	.cfi_def_cfa_register 6
	pushq	%rbx
	subq	$72, %rsp
	.cfi_offset 3, -24
	movq	%rdi, -56(%rbp)
	movq	%rsi, -64(%rbp)
	movq	%rdx, -72(%rbp)
	movq	%fs:40, %rax
	movq	%rax, -24(%rbp)
	xorl	%eax, %eax
	movq	-56(%rbp), %rbx
	movq	-56(%rbp), %rax
	movq	%rax, %rdi
.LEHB36:
	call	_ZNSt7__cxx1112basic_stringIcSt11char_traitsIcESaIcEE13_M_local_dataEv@PLT
	movq	%rax, %rcx
	movq	-72(%rbp), %rax
	movq	%rax, %rdx
	movq	%rcx, %rsi
	movq	%rbx, %rdi
	call	_ZNSt7__cxx1112basic_stringIcSt11char_traitsIcESaIcEE12_Alloc_hiderC1EPcRKS3_@PLT
.LEHE36:
	cmpq	$0, -64(%rbp)
	je	.L123
	movq	-64(%rbp), %rax
	movq	%rax, %rdi
.LEHB37:
	call	_ZNSt11char_traitsIcE6lengthEPKc
	movq	-64(%rbp), %rdx
	addq	%rdx, %rax
	jmp	.L124
.L123:
	movl	$1, %eax
.L124:
	movq	%rax, -32(%rbp)
	movq	-32(%rbp), %rdx
	movq	-64(%rbp), %rcx
	movq	-56(%rbp), %rax
	movq	%rcx, %rsi
	movq	%rax, %rdi
	call	_ZNSt7__cxx1112basic_stringIcSt11char_traitsIcESaIcEE12_M_constructIPKcEEvT_S8_St20forward_iterator_tag
.LEHE37:
	jmp	.L128
.L127:
	endbr64
	movq	%rax, %rbx
	movq	-56(%rbp), %rax
	movq	%rax, %rdi
	call	_ZNSt7__cxx1112basic_stringIcSt11char_traitsIcESaIcEE12_Alloc_hiderD1Ev
	movq	%rbx, %rax
	movq	%rax, %rdi
.LEHB38:
	call	_Unwind_Resume@PLT
.LEHE38:
.L128:
	movq	-24(%rbp), %rax
	subq	%fs:40, %rax
	je	.L126
	call	__stack_chk_fail@PLT
.L126:
	movq	-8(%rbp), %rbx
	leave
	.cfi_def_cfa 7, 8
	ret
	.cfi_endproc
.LFE5085:
	.section	.gcc_except_table
.LLSDA5085:
	.byte	0xff
	.byte	0xff
	.byte	0x1
	.uleb128 .LLSDACSE5085-.LLSDACSB5085
.LLSDACSB5085:
	.uleb128 .LEHB36-.LFB5085
	.uleb128 .LEHE36-.LEHB36
	.uleb128 0
	.uleb128 0
	.uleb128 .LEHB37-.LFB5085
	.uleb128 .LEHE37-.LEHB37
	.uleb128 .L127-.LFB5085
	.uleb128 0
	.uleb128 .LEHB38-.LFB5085
	.uleb128 .LEHE38-.LEHB38
	.uleb128 0
	.uleb128 0
.LLSDACSE5085:
	.section	.text._ZNSt7__cxx1112basic_stringIcSt11char_traitsIcESaIcEEC2IS3_EEPKcRKS3_,"axG",@progbits,_ZNSt7__cxx1112basic_stringIcSt11char_traitsIcESaIcEEC5IS3_EEPKcRKS3_,comdat
	.size	_ZNSt7__cxx1112basic_stringIcSt11char_traitsIcESaIcEEC2IS3_EEPKcRKS3_, .-_ZNSt7__cxx1112basic_stringIcSt11char_traitsIcESaIcEEC2IS3_EEPKcRKS3_
	.weak	_ZNSt7__cxx1112basic_stringIcSt11char_traitsIcESaIcEEC1IS3_EEPKcRKS3_
	.set	_ZNSt7__cxx1112basic_stringIcSt11char_traitsIcESaIcEEC1IS3_EEPKcRKS3_,_ZNSt7__cxx1112basic_stringIcSt11char_traitsIcESaIcEEC2IS3_EEPKcRKS3_
	.section	.text._ZNSt12_Vector_baseINSt7__cxx1112basic_stringIcSt11char_traitsIcESaIcEEESaIS5_EE12_Vector_implC2Ev,"axG",@progbits,_ZNSt12_Vector_baseINSt7__cxx1112basic_stringIcSt11char_traitsIcESaIcEEESaIS5_EE12_Vector_implC5Ev,comdat
	.align 2
	.weak	_ZNSt12_Vector_baseINSt7__cxx1112basic_stringIcSt11char_traitsIcESaIcEEESaIS5_EE12_Vector_implC2Ev
	.type	_ZNSt12_Vector_baseINSt7__cxx1112basic_stringIcSt11char_traitsIcESaIcEEESaIS5_EE12_Vector_implC2Ev, @function
_ZNSt12_Vector_baseINSt7__cxx1112basic_stringIcSt11char_traitsIcESaIcEEESaIS5_EE12_Vector_implC2Ev:
.LFB5168:
	.cfi_startproc
	endbr64
	pushq	%rbp
	.cfi_def_cfa_offset 16
	.cfi_offset 6, -16
	movq	%rsp, %rbp
	.cfi_def_cfa_register 6
	subq	$16, %rsp
	movq	%rdi, -8(%rbp)
	movq	-8(%rbp), %rax
	movq	%rax, %rdi
	call	_ZNSaINSt7__cxx1112basic_stringIcSt11char_traitsIcESaIcEEEEC2Ev
	movq	-8(%rbp), %rax
	movq	%rax, %rdi
	call	_ZNSt12_Vector_baseINSt7__cxx1112basic_stringIcSt11char_traitsIcESaIcEEESaIS5_EE17_Vector_impl_dataC2Ev
	nop
	leave
	.cfi_def_cfa 7, 8
	ret
	.cfi_endproc
.LFE5168:
	.size	_ZNSt12_Vector_baseINSt7__cxx1112basic_stringIcSt11char_traitsIcESaIcEEESaIS5_EE12_Vector_implC2Ev, .-_ZNSt12_Vector_baseINSt7__cxx1112basic_stringIcSt11char_traitsIcESaIcEEESaIS5_EE12_Vector_implC2Ev
	.weak	_ZNSt12_Vector_baseINSt7__cxx1112basic_stringIcSt11char_traitsIcESaIcEEESaIS5_EE12_Vector_implC1Ev
	.set	_ZNSt12_Vector_baseINSt7__cxx1112basic_stringIcSt11char_traitsIcESaIcEEESaIS5_EE12_Vector_implC1Ev,_ZNSt12_Vector_baseINSt7__cxx1112basic_stringIcSt11char_traitsIcESaIcEEESaIS5_EE12_Vector_implC2Ev
	.section	.text._ZNSaINSt7__cxx1112basic_stringIcSt11char_traitsIcESaIcEEEED2Ev,"axG",@progbits,_ZNSaINSt7__cxx1112basic_stringIcSt11char_traitsIcESaIcEEEED5Ev,comdat
	.align 2
	.weak	_ZNSaINSt7__cxx1112basic_stringIcSt11char_traitsIcESaIcEEEED2Ev
	.type	_ZNSaINSt7__cxx1112basic_stringIcSt11char_traitsIcESaIcEEEED2Ev, @function
_ZNSaINSt7__cxx1112basic_stringIcSt11char_traitsIcESaIcEEEED2Ev:
.LFB5171:
	.cfi_startproc
	endbr64
	pushq	%rbp
	.cfi_def_cfa_offset 16
	.cfi_offset 6, -16
	movq	%rsp, %rbp
	.cfi_def_cfa_register 6
	subq	$16, %rsp
	movq	%rdi, -8(%rbp)
	movq	-8(%rbp), %rax
	movq	%rax, %rdi
	call	_ZN9__gnu_cxx13new_allocatorINSt7__cxx1112basic_stringIcSt11char_traitsIcESaIcEEEED2Ev
	nop
	leave
	.cfi_def_cfa 7, 8
	ret
	.cfi_endproc
.LFE5171:
	.size	_ZNSaINSt7__cxx1112basic_stringIcSt11char_traitsIcESaIcEEEED2Ev, .-_ZNSaINSt7__cxx1112basic_stringIcSt11char_traitsIcESaIcEEEED2Ev
	.weak	_ZNSaINSt7__cxx1112basic_stringIcSt11char_traitsIcESaIcEEEED1Ev
	.set	_ZNSaINSt7__cxx1112basic_stringIcSt11char_traitsIcESaIcEEEED1Ev,_ZNSaINSt7__cxx1112basic_stringIcSt11char_traitsIcESaIcEEEED2Ev
	.section	.text._ZNSt12_Vector_baseINSt7__cxx1112basic_stringIcSt11char_traitsIcESaIcEEESaIS5_EED2Ev,"axG",@progbits,_ZNSt12_Vector_baseINSt7__cxx1112basic_stringIcSt11char_traitsIcESaIcEEESaIS5_EED5Ev,comdat
	.align 2
	.weak	_ZNSt12_Vector_baseINSt7__cxx1112basic_stringIcSt11char_traitsIcESaIcEEESaIS5_EED2Ev
	.type	_ZNSt12_Vector_baseINSt7__cxx1112basic_stringIcSt11char_traitsIcESaIcEEESaIS5_EED2Ev, @function
_ZNSt12_Vector_baseINSt7__cxx1112basic_stringIcSt11char_traitsIcESaIcEEESaIS5_EED2Ev:
.LFB5174:
	.cfi_startproc
	.cfi_personality 0x9b,DW.ref.__gxx_personality_v0
	.cfi_lsda 0x1b,.LLSDA5174
	endbr64
	pushq	%rbp
	.cfi_def_cfa_offset 16
	.cfi_offset 6, -16
	movq	%rsp, %rbp
	.cfi_def_cfa_register 6
	subq	$16, %rsp
	movq	%rdi, -8(%rbp)
	movq	-8(%rbp), %rax
	movq	16(%rax), %rdx
	movq	-8(%rbp), %rax
	movq	(%rax), %rcx
	movq	%rdx, %rax
	subq	%rcx, %rax
	sarq	$5, %rax
	movq	%rax, %rdx
	movq	-8(%rbp), %rax
	movq	(%rax), %rcx
	movq	-8(%rbp), %rax
	movq	%rcx, %rsi
	movq	%rax, %rdi
	call	_ZNSt12_Vector_baseINSt7__cxx1112basic_stringIcSt11char_traitsIcESaIcEEESaIS5_EE13_M_deallocateEPS5_m
	movq	-8(%rbp), %rax
	movq	%rax, %rdi
	call	_ZNSt12_Vector_baseINSt7__cxx1112basic_stringIcSt11char_traitsIcESaIcEEESaIS5_EE12_Vector_implD1Ev
	nop
	leave
	.cfi_def_cfa 7, 8
	ret
	.cfi_endproc
.LFE5174:
	.section	.gcc_except_table
.LLSDA5174:
	.byte	0xff
	.byte	0xff
	.byte	0x1
	.uleb128 .LLSDACSE5174-.LLSDACSB5174
.LLSDACSB5174:
.LLSDACSE5174:
	.section	.text._ZNSt12_Vector_baseINSt7__cxx1112basic_stringIcSt11char_traitsIcESaIcEEESaIS5_EED2Ev,"axG",@progbits,_ZNSt12_Vector_baseINSt7__cxx1112basic_stringIcSt11char_traitsIcESaIcEEESaIS5_EED5Ev,comdat
	.size	_ZNSt12_Vector_baseINSt7__cxx1112basic_stringIcSt11char_traitsIcESaIcEEESaIS5_EED2Ev, .-_ZNSt12_Vector_baseINSt7__cxx1112basic_stringIcSt11char_traitsIcESaIcEEESaIS5_EED2Ev
	.weak	_ZNSt12_Vector_baseINSt7__cxx1112basic_stringIcSt11char_traitsIcESaIcEEESaIS5_EED1Ev
	.set	_ZNSt12_Vector_baseINSt7__cxx1112basic_stringIcSt11char_traitsIcESaIcEEESaIS5_EED1Ev,_ZNSt12_Vector_baseINSt7__cxx1112basic_stringIcSt11char_traitsIcESaIcEEESaIS5_EED2Ev
	.section	.text._ZNSt6vectorINSt7__cxx1112basic_stringIcSt11char_traitsIcESaIcEEESaIS5_EED2Ev,"axG",@progbits,_ZNSt6vectorINSt7__cxx1112basic_stringIcSt11char_traitsIcESaIcEEESaIS5_EED5Ev,comdat
	.align 2
	.weak	_ZNSt6vectorINSt7__cxx1112basic_stringIcSt11char_traitsIcESaIcEEESaIS5_EED2Ev
	.type	_ZNSt6vectorINSt7__cxx1112basic_stringIcSt11char_traitsIcESaIcEEESaIS5_EED2Ev, @function
_ZNSt6vectorINSt7__cxx1112basic_stringIcSt11char_traitsIcESaIcEEESaIS5_EED2Ev:
.LFB5177:
	.cfi_startproc
	.cfi_personality 0x9b,DW.ref.__gxx_personality_v0
	.cfi_lsda 0x1b,.LLSDA5177
	endbr64
	pushq	%rbp
	.cfi_def_cfa_offset 16
	.cfi_offset 6, -16
	movq	%rsp, %rbp
	.cfi_def_cfa_register 6
	subq	$16, %rsp
	movq	%rdi, -8(%rbp)
	movq	-8(%rbp), %rax
	movq	%rax, %rdi
	call	_ZNSt12_Vector_baseINSt7__cxx1112basic_stringIcSt11char_traitsIcESaIcEEESaIS5_EE19_M_get_Tp_allocatorEv
	movq	%rax, %rdx
	movq	-8(%rbp), %rax
	movq	8(%rax), %rcx
	movq	-8(%rbp), %rax
	movq	(%rax), %rax
	movq	%rcx, %rsi
	movq	%rax, %rdi
	call	_ZSt8_DestroyIPNSt7__cxx1112basic_stringIcSt11char_traitsIcESaIcEEES5_EvT_S7_RSaIT0_E
	movq	-8(%rbp), %rax
	movq	%rax, %rdi
	call	_ZNSt12_Vector_baseINSt7__cxx1112basic_stringIcSt11char_traitsIcESaIcEEESaIS5_EED2Ev
	nop
	leave
	.cfi_def_cfa 7, 8
	ret
	.cfi_endproc
.LFE5177:
	.section	.gcc_except_table
.LLSDA5177:
	.byte	0xff
	.byte	0xff
	.byte	0x1
	.uleb128 .LLSDACSE5177-.LLSDACSB5177
.LLSDACSB5177:
.LLSDACSE5177:
	.section	.text._ZNSt6vectorINSt7__cxx1112basic_stringIcSt11char_traitsIcESaIcEEESaIS5_EED2Ev,"axG",@progbits,_ZNSt6vectorINSt7__cxx1112basic_stringIcSt11char_traitsIcESaIcEEESaIS5_EED5Ev,comdat
	.size	_ZNSt6vectorINSt7__cxx1112basic_stringIcSt11char_traitsIcESaIcEEESaIS5_EED2Ev, .-_ZNSt6vectorINSt7__cxx1112basic_stringIcSt11char_traitsIcESaIcEEESaIS5_EED2Ev
	.weak	_ZNSt6vectorINSt7__cxx1112basic_stringIcSt11char_traitsIcESaIcEEESaIS5_EED1Ev
	.set	_ZNSt6vectorINSt7__cxx1112basic_stringIcSt11char_traitsIcESaIcEEESaIS5_EED1Ev,_ZNSt6vectorINSt7__cxx1112basic_stringIcSt11char_traitsIcESaIcEEESaIS5_EED2Ev
	.section	.text._ZNSt12_Vector_baseISt10unique_ptrI15TrafficLightImpSt14default_deleteIS1_EESaIS4_EE12_Vector_implC2Ev,"axG",@progbits,_ZNSt12_Vector_baseISt10unique_ptrI15TrafficLightImpSt14default_deleteIS1_EESaIS4_EE12_Vector_implC5Ev,comdat
	.align 2
	.weak	_ZNSt12_Vector_baseISt10unique_ptrI15TrafficLightImpSt14default_deleteIS1_EESaIS4_EE12_Vector_implC2Ev
	.type	_ZNSt12_Vector_baseISt10unique_ptrI15TrafficLightImpSt14default_deleteIS1_EESaIS4_EE12_Vector_implC2Ev, @function
_ZNSt12_Vector_baseISt10unique_ptrI15TrafficLightImpSt14default_deleteIS1_EESaIS4_EE12_Vector_implC2Ev:
.LFB5284:
	.cfi_startproc
	endbr64
	pushq	%rbp
	.cfi_def_cfa_offset 16
	.cfi_offset 6, -16
	movq	%rsp, %rbp
	.cfi_def_cfa_register 6
	subq	$16, %rsp
	movq	%rdi, -8(%rbp)
	movq	-8(%rbp), %rax
	movq	%rax, %rdi
	call	_ZNSaISt10unique_ptrI15TrafficLightImpSt14default_deleteIS0_EEEC2Ev
	movq	-8(%rbp), %rax
	movq	%rax, %rdi
	call	_ZNSt12_Vector_baseISt10unique_ptrI15TrafficLightImpSt14default_deleteIS1_EESaIS4_EE17_Vector_impl_dataC2Ev
	nop
	leave
	.cfi_def_cfa 7, 8
	ret
	.cfi_endproc
.LFE5284:
	.size	_ZNSt12_Vector_baseISt10unique_ptrI15TrafficLightImpSt14default_deleteIS1_EESaIS4_EE12_Vector_implC2Ev, .-_ZNSt12_Vector_baseISt10unique_ptrI15TrafficLightImpSt14default_deleteIS1_EESaIS4_EE12_Vector_implC2Ev
	.weak	_ZNSt12_Vector_baseISt10unique_ptrI15TrafficLightImpSt14default_deleteIS1_EESaIS4_EE12_Vector_implC1Ev
	.set	_ZNSt12_Vector_baseISt10unique_ptrI15TrafficLightImpSt14default_deleteIS1_EESaIS4_EE12_Vector_implC1Ev,_ZNSt12_Vector_baseISt10unique_ptrI15TrafficLightImpSt14default_deleteIS1_EESaIS4_EE12_Vector_implC2Ev
	.section	.text._ZNSaISt10unique_ptrI15TrafficLightImpSt14default_deleteIS0_EEED2Ev,"axG",@progbits,_ZNSaISt10unique_ptrI15TrafficLightImpSt14default_deleteIS0_EEED5Ev,comdat
	.align 2
	.weak	_ZNSaISt10unique_ptrI15TrafficLightImpSt14default_deleteIS0_EEED2Ev
	.type	_ZNSaISt10unique_ptrI15TrafficLightImpSt14default_deleteIS0_EEED2Ev, @function
_ZNSaISt10unique_ptrI15TrafficLightImpSt14default_deleteIS0_EEED2Ev:
.LFB5287:
	.cfi_startproc
	endbr64
	pushq	%rbp
	.cfi_def_cfa_offset 16
	.cfi_offset 6, -16
	movq	%rsp, %rbp
	.cfi_def_cfa_register 6
	subq	$16, %rsp
	movq	%rdi, -8(%rbp)
	movq	-8(%rbp), %rax
	movq	%rax, %rdi
	call	_ZN9__gnu_cxx13new_allocatorISt10unique_ptrI15TrafficLightImpSt14default_deleteIS2_EEED2Ev
	nop
	leave
	.cfi_def_cfa 7, 8
	ret
	.cfi_endproc
.LFE5287:
	.size	_ZNSaISt10unique_ptrI15TrafficLightImpSt14default_deleteIS0_EEED2Ev, .-_ZNSaISt10unique_ptrI15TrafficLightImpSt14default_deleteIS0_EEED2Ev
	.weak	_ZNSaISt10unique_ptrI15TrafficLightImpSt14default_deleteIS0_EEED1Ev
	.set	_ZNSaISt10unique_ptrI15TrafficLightImpSt14default_deleteIS0_EEED1Ev,_ZNSaISt10unique_ptrI15TrafficLightImpSt14default_deleteIS0_EEED2Ev
	.section	.text._ZNSt12_Vector_baseISt10unique_ptrI15TrafficLightImpSt14default_deleteIS1_EESaIS4_EED2Ev,"axG",@progbits,_ZNSt12_Vector_baseISt10unique_ptrI15TrafficLightImpSt14default_deleteIS1_EESaIS4_EED5Ev,comdat
	.align 2
	.weak	_ZNSt12_Vector_baseISt10unique_ptrI15TrafficLightImpSt14default_deleteIS1_EESaIS4_EED2Ev
	.type	_ZNSt12_Vector_baseISt10unique_ptrI15TrafficLightImpSt14default_deleteIS1_EESaIS4_EED2Ev, @function
_ZNSt12_Vector_baseISt10unique_ptrI15TrafficLightImpSt14default_deleteIS1_EESaIS4_EED2Ev:
.LFB5290:
	.cfi_startproc
	.cfi_personality 0x9b,DW.ref.__gxx_personality_v0
	.cfi_lsda 0x1b,.LLSDA5290
	endbr64
	pushq	%rbp
	.cfi_def_cfa_offset 16
	.cfi_offset 6, -16
	movq	%rsp, %rbp
	.cfi_def_cfa_register 6
	subq	$16, %rsp
	movq	%rdi, -8(%rbp)
	movq	-8(%rbp), %rax
	movq	16(%rax), %rdx
	movq	-8(%rbp), %rax
	movq	(%rax), %rcx
	movq	%rdx, %rax
	subq	%rcx, %rax
	sarq	$3, %rax
	movq	%rax, %rdx
	movq	-8(%rbp), %rax
	movq	(%rax), %rcx
	movq	-8(%rbp), %rax
	movq	%rcx, %rsi
	movq	%rax, %rdi
	call	_ZNSt12_Vector_baseISt10unique_ptrI15TrafficLightImpSt14default_deleteIS1_EESaIS4_EE13_M_deallocateEPS4_m
	movq	-8(%rbp), %rax
	movq	%rax, %rdi
	call	_ZNSt12_Vector_baseISt10unique_ptrI15TrafficLightImpSt14default_deleteIS1_EESaIS4_EE12_Vector_implD1Ev
	nop
	leave
	.cfi_def_cfa 7, 8
	ret
	.cfi_endproc
.LFE5290:
	.section	.gcc_except_table
.LLSDA5290:
	.byte	0xff
	.byte	0xff
	.byte	0x1
	.uleb128 .LLSDACSE5290-.LLSDACSB5290
.LLSDACSB5290:
.LLSDACSE5290:
	.section	.text._ZNSt12_Vector_baseISt10unique_ptrI15TrafficLightImpSt14default_deleteIS1_EESaIS4_EED2Ev,"axG",@progbits,_ZNSt12_Vector_baseISt10unique_ptrI15TrafficLightImpSt14default_deleteIS1_EESaIS4_EED5Ev,comdat
	.size	_ZNSt12_Vector_baseISt10unique_ptrI15TrafficLightImpSt14default_deleteIS1_EESaIS4_EED2Ev, .-_ZNSt12_Vector_baseISt10unique_ptrI15TrafficLightImpSt14default_deleteIS1_EESaIS4_EED2Ev
	.weak	_ZNSt12_Vector_baseISt10unique_ptrI15TrafficLightImpSt14default_deleteIS1_EESaIS4_EED1Ev
	.set	_ZNSt12_Vector_baseISt10unique_ptrI15TrafficLightImpSt14default_deleteIS1_EESaIS4_EED1Ev,_ZNSt12_Vector_baseISt10unique_ptrI15TrafficLightImpSt14default_deleteIS1_EESaIS4_EED2Ev
	.section	.text._ZNSt6vectorISt10unique_ptrI15TrafficLightImpSt14default_deleteIS1_EESaIS4_EED2Ev,"axG",@progbits,_ZNSt6vectorISt10unique_ptrI15TrafficLightImpSt14default_deleteIS1_EESaIS4_EED5Ev,comdat
	.align 2
	.weak	_ZNSt6vectorISt10unique_ptrI15TrafficLightImpSt14default_deleteIS1_EESaIS4_EED2Ev
	.type	_ZNSt6vectorISt10unique_ptrI15TrafficLightImpSt14default_deleteIS1_EESaIS4_EED2Ev, @function
_ZNSt6vectorISt10unique_ptrI15TrafficLightImpSt14default_deleteIS1_EESaIS4_EED2Ev:
.LFB5293:
	.cfi_startproc
	.cfi_personality 0x9b,DW.ref.__gxx_personality_v0
	.cfi_lsda 0x1b,.LLSDA5293
	endbr64
	pushq	%rbp
	.cfi_def_cfa_offset 16
	.cfi_offset 6, -16
	movq	%rsp, %rbp
	.cfi_def_cfa_register 6
	subq	$16, %rsp
	movq	%rdi, -8(%rbp)
	movq	-8(%rbp), %rax
	movq	%rax, %rdi
	call	_ZNSt12_Vector_baseISt10unique_ptrI15TrafficLightImpSt14default_deleteIS1_EESaIS4_EE19_M_get_Tp_allocatorEv
	movq	%rax, %rdx
	movq	-8(%rbp), %rax
	movq	8(%rax), %rcx
	movq	-8(%rbp), %rax
	movq	(%rax), %rax
	movq	%rcx, %rsi
	movq	%rax, %rdi
	call	_ZSt8_DestroyIPSt10unique_ptrI15TrafficLightImpSt14default_deleteIS1_EES4_EvT_S6_RSaIT0_E
	movq	-8(%rbp), %rax
	movq	%rax, %rdi
	call	_ZNSt12_Vector_baseISt10unique_ptrI15TrafficLightImpSt14default_deleteIS1_EESaIS4_EED2Ev
	nop
	leave
	.cfi_def_cfa 7, 8
	ret
	.cfi_endproc
.LFE5293:
	.section	.gcc_except_table
.LLSDA5293:
	.byte	0xff
	.byte	0xff
	.byte	0x1
	.uleb128 .LLSDACSE5293-.LLSDACSB5293
.LLSDACSB5293:
.LLSDACSE5293:
	.section	.text._ZNSt6vectorISt10unique_ptrI15TrafficLightImpSt14default_deleteIS1_EESaIS4_EED2Ev,"axG",@progbits,_ZNSt6vectorISt10unique_ptrI15TrafficLightImpSt14default_deleteIS1_EESaIS4_EED5Ev,comdat
	.size	_ZNSt6vectorISt10unique_ptrI15TrafficLightImpSt14default_deleteIS1_EESaIS4_EED2Ev, .-_ZNSt6vectorISt10unique_ptrI15TrafficLightImpSt14default_deleteIS1_EESaIS4_EED2Ev
	.weak	_ZNSt6vectorISt10unique_ptrI15TrafficLightImpSt14default_deleteIS1_EESaIS4_EED1Ev
	.set	_ZNSt6vectorISt10unique_ptrI15TrafficLightImpSt14default_deleteIS1_EESaIS4_EED1Ev,_ZNSt6vectorISt10unique_ptrI15TrafficLightImpSt14default_deleteIS1_EESaIS4_EED2Ev
	.section	.text._ZNSt6vectorINSt7__cxx1112basic_stringIcSt11char_traitsIcESaIcEEESaIS5_EEaSESt16initializer_listIS5_E,"axG",@progbits,_ZNSt6vectorINSt7__cxx1112basic_stringIcSt11char_traitsIcESaIcEEESaIS5_EEaSESt16initializer_listIS5_E,comdat
	.align 2
	.weak	_ZNSt6vectorINSt7__cxx1112basic_stringIcSt11char_traitsIcESaIcEEESaIS5_EEaSESt16initializer_listIS5_E
	.type	_ZNSt6vectorINSt7__cxx1112basic_stringIcSt11char_traitsIcESaIcEEESaIS5_EEaSESt16initializer_listIS5_E, @function
_ZNSt6vectorINSt7__cxx1112basic_stringIcSt11char_traitsIcESaIcEEESaIS5_EEaSESt16initializer_listIS5_E:
.LFB5295:
	.cfi_startproc
	endbr64
	pushq	%rbp
	.cfi_def_cfa_offset 16
	.cfi_offset 6, -16
	movq	%rsp, %rbp
	.cfi_def_cfa_register 6
	pushq	%rbx
	subq	$56, %rsp
	.cfi_offset 3, -24
	movq	%rdi, -40(%rbp)
	movq	%rdx, %rcx
	movq	%rsi, %rax
	movq	%rdi, %rdx
	movq	%rcx, %rdx
	movq	%rax, -64(%rbp)
	movq	%rdx, -56(%rbp)
	movq	%fs:40, %rax
	movq	%rax, -24(%rbp)
	xorl	%eax, %eax
	leaq	-64(%rbp), %rax
	movq	%rax, %rdi
	call	_ZNKSt16initializer_listINSt7__cxx1112basic_stringIcSt11char_traitsIcESaIcEEEE3endEv
	movq	%rax, %rbx
	leaq	-64(%rbp), %rax
	movq	%rax, %rdi
	call	_ZNKSt16initializer_listINSt7__cxx1112basic_stringIcSt11char_traitsIcESaIcEEEE5beginEv
	movq	%rax, %rcx
	movq	-40(%rbp), %rax
	movq	%rbx, %rdx
	movq	%rcx, %rsi
	movq	%rax, %rdi
	call	_ZNSt6vectorINSt7__cxx1112basic_stringIcSt11char_traitsIcESaIcEEESaIS5_EE13_M_assign_auxIPKS5_EEvT_SB_St20forward_iterator_tag
	movq	-40(%rbp), %rax
	movq	-24(%rbp), %rdx
	subq	%fs:40, %rdx
	je	.L139
	call	__stack_chk_fail@PLT
.L139:
	movq	-8(%rbp), %rbx
	leave
	.cfi_def_cfa 7, 8
	ret
	.cfi_endproc
.LFE5295:
	.size	_ZNSt6vectorINSt7__cxx1112basic_stringIcSt11char_traitsIcESaIcEEESaIS5_EEaSESt16initializer_listIS5_E, .-_ZNSt6vectorINSt7__cxx1112basic_stringIcSt11char_traitsIcESaIcEEESaIS5_EEaSESt16initializer_listIS5_E
	.section	.text._ZNSt10unique_ptrI15TrafficLightImpSt14default_deleteIS0_EED2Ev,"axG",@progbits,_ZNSt10unique_ptrI15TrafficLightImpSt14default_deleteIS0_EED5Ev,comdat
	.align 2
	.weak	_ZNSt10unique_ptrI15TrafficLightImpSt14default_deleteIS0_EED2Ev
	.type	_ZNSt10unique_ptrI15TrafficLightImpSt14default_deleteIS0_EED2Ev, @function
_ZNSt10unique_ptrI15TrafficLightImpSt14default_deleteIS0_EED2Ev:
.LFB5298:
	.cfi_startproc
	endbr64
	pushq	%rbp
	.cfi_def_cfa_offset 16
	.cfi_offset 6, -16
	movq	%rsp, %rbp
	.cfi_def_cfa_register 6
	pushq	%rbx
	subq	$40, %rsp
	.cfi_offset 3, -24
	movq	%rdi, -40(%rbp)
	movq	-40(%rbp), %rax
	movq	%rax, %rdi
	call	_ZNSt15__uniq_ptr_implI15TrafficLightImpSt14default_deleteIS0_EE6_M_ptrEv
	movq	%rax, -24(%rbp)
	movq	-24(%rbp), %rax
	movq	(%rax), %rax
	testq	%rax, %rax
	je	.L141
	movq	-40(%rbp), %rax
	movq	%rax, %rdi
	call	_ZNSt10unique_ptrI15TrafficLightImpSt14default_deleteIS0_EE11get_deleterEv
	movq	%rax, %rbx
	movq	-24(%rbp), %rax
	movq	%rax, %rdi
	call	_ZSt4moveIRP15TrafficLightImpEONSt16remove_referenceIT_E4typeEOS4_
	movq	(%rax), %rax
	movq	%rax, %rsi
	movq	%rbx, %rdi
	call	_ZNKSt14default_deleteI15TrafficLightImpEclEPS0_
.L141:
	movq	-24(%rbp), %rax
	movq	$0, (%rax)
	nop
	movq	-8(%rbp), %rbx
	leave
	.cfi_def_cfa 7, 8
	ret
	.cfi_endproc
.LFE5298:
	.size	_ZNSt10unique_ptrI15TrafficLightImpSt14default_deleteIS0_EED2Ev, .-_ZNSt10unique_ptrI15TrafficLightImpSt14default_deleteIS0_EED2Ev
	.weak	_ZNSt10unique_ptrI15TrafficLightImpSt14default_deleteIS0_EED1Ev
	.set	_ZNSt10unique_ptrI15TrafficLightImpSt14default_deleteIS0_EED1Ev,_ZNSt10unique_ptrI15TrafficLightImpSt14default_deleteIS0_EED2Ev
	.section	.text._ZSt8distanceIPKcENSt15iterator_traitsIT_E15difference_typeES3_S3_,"axG",@progbits,_ZSt8distanceIPKcENSt15iterator_traitsIT_E15difference_typeES3_S3_,comdat
	.weak	_ZSt8distanceIPKcENSt15iterator_traitsIT_E15difference_typeES3_S3_
	.type	_ZSt8distanceIPKcENSt15iterator_traitsIT_E15difference_typeES3_S3_, @function
_ZSt8distanceIPKcENSt15iterator_traitsIT_E15difference_typeES3_S3_:
.LFB5382:
	.cfi_startproc
	endbr64
	pushq	%rbp
	.cfi_def_cfa_offset 16
	.cfi_offset 6, -16
	movq	%rsp, %rbp
	.cfi_def_cfa_register 6
	subq	$16, %rsp
	movq	%rdi, -8(%rbp)
	movq	%rsi, -16(%rbp)
	leaq	-8(%rbp), %rax
	movq	%rax, %rdi
	call	_ZSt19__iterator_categoryIPKcENSt15iterator_traitsIT_E17iterator_categoryERKS3_
	movq	-8(%rbp), %rax
	movq	-16(%rbp), %rdx
	movq	%rdx, %rsi
	movq	%rax, %rdi
	call	_ZSt10__distanceIPKcENSt15iterator_traitsIT_E15difference_typeES3_S3_St26random_access_iterator_tag
	leave
	.cfi_def_cfa 7, 8
	ret
	.cfi_endproc
.LFE5382:
	.size	_ZSt8distanceIPKcENSt15iterator_traitsIT_E15difference_typeES3_S3_, .-_ZSt8distanceIPKcENSt15iterator_traitsIT_E15difference_typeES3_S3_
	.section	.rodata
	.align 8
.LC17:
	.string	"basic_string::_M_construct null not valid"
	.section	.text._ZNSt7__cxx1112basic_stringIcSt11char_traitsIcESaIcEE12_M_constructIPKcEEvT_S8_St20forward_iterator_tag,"axG",@progbits,_ZNSt7__cxx1112basic_stringIcSt11char_traitsIcESaIcEE12_M_constructIPKcEEvT_S8_St20forward_iterator_tag,comdat
	.align 2
	.weak	_ZNSt7__cxx1112basic_stringIcSt11char_traitsIcESaIcEE12_M_constructIPKcEEvT_S8_St20forward_iterator_tag
	.type	_ZNSt7__cxx1112basic_stringIcSt11char_traitsIcESaIcEE12_M_constructIPKcEEvT_S8_St20forward_iterator_tag, @function
_ZNSt7__cxx1112basic_stringIcSt11char_traitsIcESaIcEE12_M_constructIPKcEEvT_S8_St20forward_iterator_tag:
.LFB5381:
	.cfi_startproc
	.cfi_personality 0x9b,DW.ref.__gxx_personality_v0
	.cfi_lsda 0x1b,.LLSDA5381
	endbr64
	pushq	%rbp
	.cfi_def_cfa_offset 16
	.cfi_offset 6, -16
	movq	%rsp, %rbp
	.cfi_def_cfa_register 6
	pushq	%rbx
	subq	$56, %rsp
	.cfi_offset 3, -24
	movq	%rdi, -40(%rbp)
	movq	%rsi, -48(%rbp)
	movq	%rdx, -56(%rbp)
	movq	%fs:40, %rax
	movq	%rax, -24(%rbp)
	xorl	%eax, %eax
	movq	-48(%rbp), %rax
	movq	%rax, %rdi
	call	_ZN9__gnu_cxx17__is_null_pointerIKcEEbPT_
	testb	%al, %al
	je	.L145
	movq	-48(%rbp), %rax
	cmpq	-56(%rbp), %rax
	je	.L145
	movl	$1, %eax
	jmp	.L146
.L145:
	movl	$0, %eax
.L146:
	testb	%al, %al
	je	.L147
	leaq	.LC17(%rip), %rax
	movq	%rax, %rdi
.LEHB39:
	call	_ZSt19__throw_logic_errorPKc@PLT
.L147:
	movq	-56(%rbp), %rdx
	movq	-48(%rbp), %rax
	movq	%rdx, %rsi
	movq	%rax, %rdi
	call	_ZSt8distanceIPKcENSt15iterator_traitsIT_E15difference_typeES3_S3_
	movq	%rax, -32(%rbp)
	movq	-32(%rbp), %rax
	cmpq	$15, %rax
	jbe	.L148
	leaq	-32(%rbp), %rcx
	movq	-40(%rbp), %rax
	movl	$0, %edx
	movq	%rcx, %rsi
	movq	%rax, %rdi
	call	_ZNSt7__cxx1112basic_stringIcSt11char_traitsIcESaIcEE9_M_createERmm@PLT
	movq	%rax, %rdx
	movq	-40(%rbp), %rax
	movq	%rdx, %rsi
	movq	%rax, %rdi
	call	_ZNSt7__cxx1112basic_stringIcSt11char_traitsIcESaIcEE7_M_dataEPc@PLT
	movq	-32(%rbp), %rdx
	movq	-40(%rbp), %rax
	movq	%rdx, %rsi
	movq	%rax, %rdi
	call	_ZNSt7__cxx1112basic_stringIcSt11char_traitsIcESaIcEE11_M_capacityEm@PLT
.LEHE39:
.L148:
	movq	-40(%rbp), %rax
	movq	%rax, %rdi
.LEHB40:
	call	_ZNKSt7__cxx1112basic_stringIcSt11char_traitsIcESaIcEE7_M_dataEv@PLT
.LEHE40:
	movq	%rax, %rcx
	movq	-56(%rbp), %rdx
	movq	-48(%rbp), %rax
	movq	%rax, %rsi
	movq	%rcx, %rdi
	call	_ZNSt7__cxx1112basic_stringIcSt11char_traitsIcESaIcEE13_S_copy_charsEPcPKcS7_@PLT
	movq	-32(%rbp), %rdx
	movq	-40(%rbp), %rax
	movq	%rdx, %rsi
	movq	%rax, %rdi
.LEHB41:
	call	_ZNSt7__cxx1112basic_stringIcSt11char_traitsIcESaIcEE13_M_set_lengthEm@PLT
.LEHE41:
	nop
	movq	-24(%rbp), %rax
	subq	%fs:40, %rax
	je	.L151
	jmp	.L154
.L152:
	endbr64
	movq	%rax, %rdi
	call	__cxa_begin_catch@PLT
	movq	-40(%rbp), %rax
	movq	%rax, %rdi
.LEHB42:
	call	_ZNSt7__cxx1112basic_stringIcSt11char_traitsIcESaIcEE10_M_disposeEv@PLT
	call	__cxa_rethrow@PLT
.LEHE42:
.L153:
	endbr64
	movq	%rax, %rbx
	call	__cxa_end_catch@PLT
	movq	%rbx, %rax
	movq	%rax, %rdi
.LEHB43:
	call	_Unwind_Resume@PLT
.LEHE43:
.L154:
	call	__stack_chk_fail@PLT
.L151:
	movq	-8(%rbp), %rbx
	leave
	.cfi_def_cfa 7, 8
	ret
	.cfi_endproc
.LFE5381:
	.section	.gcc_except_table
	.align 4
.LLSDA5381:
	.byte	0xff
	.byte	0x9b
	.uleb128 .LLSDATT5381-.LLSDATTD5381
.LLSDATTD5381:
	.byte	0x1
	.uleb128 .LLSDACSE5381-.LLSDACSB5381
.LLSDACSB5381:
	.uleb128 .LEHB39-.LFB5381
	.uleb128 .LEHE39-.LEHB39
	.uleb128 0
	.uleb128 0
	.uleb128 .LEHB40-.LFB5381
	.uleb128 .LEHE40-.LEHB40
	.uleb128 .L152-.LFB5381
	.uleb128 0x1
	.uleb128 .LEHB41-.LFB5381
	.uleb128 .LEHE41-.LEHB41
	.uleb128 0
	.uleb128 0
	.uleb128 .LEHB42-.LFB5381
	.uleb128 .LEHE42-.LEHB42
	.uleb128 .L153-.LFB5381
	.uleb128 0
	.uleb128 .LEHB43-.LFB5381
	.uleb128 .LEHE43-.LEHB43
	.uleb128 0
	.uleb128 0
.LLSDACSE5381:
	.byte	0x1
	.byte	0
	.align 4
	.long	0

.LLSDATT5381:
	.section	.text._ZNSt7__cxx1112basic_stringIcSt11char_traitsIcESaIcEE12_M_constructIPKcEEvT_S8_St20forward_iterator_tag,"axG",@progbits,_ZNSt7__cxx1112basic_stringIcSt11char_traitsIcESaIcEE12_M_constructIPKcEEvT_S8_St20forward_iterator_tag,comdat
	.size	_ZNSt7__cxx1112basic_stringIcSt11char_traitsIcESaIcEE12_M_constructIPKcEEvT_S8_St20forward_iterator_tag, .-_ZNSt7__cxx1112basic_stringIcSt11char_traitsIcESaIcEE12_M_constructIPKcEEvT_S8_St20forward_iterator_tag
	.section	.text._ZNSaINSt7__cxx1112basic_stringIcSt11char_traitsIcESaIcEEEEC2Ev,"axG",@progbits,_ZNSaINSt7__cxx1112basic_stringIcSt11char_traitsIcESaIcEEEEC5Ev,comdat
	.align 2
	.weak	_ZNSaINSt7__cxx1112basic_stringIcSt11char_traitsIcESaIcEEEEC2Ev
	.type	_ZNSaINSt7__cxx1112basic_stringIcSt11char_traitsIcESaIcEEEEC2Ev, @function
_ZNSaINSt7__cxx1112basic_stringIcSt11char_traitsIcESaIcEEEEC2Ev:
.LFB5476:
	.cfi_startproc
	endbr64
	pushq	%rbp
	.cfi_def_cfa_offset 16
	.cfi_offset 6, -16
	movq	%rsp, %rbp
	.cfi_def_cfa_register 6
	subq	$16, %rsp
	movq	%rdi, -8(%rbp)
	movq	-8(%rbp), %rax
	movq	%rax, %rdi
	call	_ZN9__gnu_cxx13new_allocatorINSt7__cxx1112basic_stringIcSt11char_traitsIcESaIcEEEEC2Ev
	nop
	leave
	.cfi_def_cfa 7, 8
	ret
	.cfi_endproc
.LFE5476:
	.size	_ZNSaINSt7__cxx1112basic_stringIcSt11char_traitsIcESaIcEEEEC2Ev, .-_ZNSaINSt7__cxx1112basic_stringIcSt11char_traitsIcESaIcEEEEC2Ev
	.weak	_ZNSaINSt7__cxx1112basic_stringIcSt11char_traitsIcESaIcEEEEC1Ev
	.set	_ZNSaINSt7__cxx1112basic_stringIcSt11char_traitsIcESaIcEEEEC1Ev,_ZNSaINSt7__cxx1112basic_stringIcSt11char_traitsIcESaIcEEEEC2Ev
	.section	.text._ZNSt12_Vector_baseINSt7__cxx1112basic_stringIcSt11char_traitsIcESaIcEEESaIS5_EE17_Vector_impl_dataC2Ev,"axG",@progbits,_ZNSt12_Vector_baseINSt7__cxx1112basic_stringIcSt11char_traitsIcESaIcEEESaIS5_EE17_Vector_impl_dataC5Ev,comdat
	.align 2
	.weak	_ZNSt12_Vector_baseINSt7__cxx1112basic_stringIcSt11char_traitsIcESaIcEEESaIS5_EE17_Vector_impl_dataC2Ev
	.type	_ZNSt12_Vector_baseINSt7__cxx1112basic_stringIcSt11char_traitsIcESaIcEEESaIS5_EE17_Vector_impl_dataC2Ev, @function
_ZNSt12_Vector_baseINSt7__cxx1112basic_stringIcSt11char_traitsIcESaIcEEESaIS5_EE17_Vector_impl_dataC2Ev:
.LFB5479:
	.cfi_startproc
	endbr64
	pushq	%rbp
	.cfi_def_cfa_offset 16
	.cfi_offset 6, -16
	movq	%rsp, %rbp
	.cfi_def_cfa_register 6
	movq	%rdi, -8(%rbp)
	movq	-8(%rbp), %rax
	movq	$0, (%rax)
	movq	-8(%rbp), %rax
	movq	$0, 8(%rax)
	movq	-8(%rbp), %rax
	movq	$0, 16(%rax)
	nop
	popq	%rbp
	.cfi_def_cfa 7, 8
	ret
	.cfi_endproc
.LFE5479:
	.size	_ZNSt12_Vector_baseINSt7__cxx1112basic_stringIcSt11char_traitsIcESaIcEEESaIS5_EE17_Vector_impl_dataC2Ev, .-_ZNSt12_Vector_baseINSt7__cxx1112basic_stringIcSt11char_traitsIcESaIcEEESaIS5_EE17_Vector_impl_dataC2Ev
	.weak	_ZNSt12_Vector_baseINSt7__cxx1112basic_stringIcSt11char_traitsIcESaIcEEESaIS5_EE17_Vector_impl_dataC1Ev
	.set	_ZNSt12_Vector_baseINSt7__cxx1112basic_stringIcSt11char_traitsIcESaIcEEESaIS5_EE17_Vector_impl_dataC1Ev,_ZNSt12_Vector_baseINSt7__cxx1112basic_stringIcSt11char_traitsIcESaIcEEESaIS5_EE17_Vector_impl_dataC2Ev
	.section	.text._ZN9__gnu_cxx13new_allocatorINSt7__cxx1112basic_stringIcSt11char_traitsIcESaIcEEEED2Ev,"axG",@progbits,_ZN9__gnu_cxx13new_allocatorINSt7__cxx1112basic_stringIcSt11char_traitsIcESaIcEEEED5Ev,comdat
	.align 2
	.weak	_ZN9__gnu_cxx13new_allocatorINSt7__cxx1112basic_stringIcSt11char_traitsIcESaIcEEEED2Ev
	.type	_ZN9__gnu_cxx13new_allocatorINSt7__cxx1112basic_stringIcSt11char_traitsIcESaIcEEEED2Ev, @function
_ZN9__gnu_cxx13new_allocatorINSt7__cxx1112basic_stringIcSt11char_traitsIcESaIcEEEED2Ev:
.LFB5482:
	.cfi_startproc
	endbr64
	pushq	%rbp
	.cfi_def_cfa_offset 16
	.cfi_offset 6, -16
	movq	%rsp, %rbp
	.cfi_def_cfa_register 6
	movq	%rdi, -8(%rbp)
	nop
	popq	%rbp
	.cfi_def_cfa 7, 8
	ret
	.cfi_endproc
.LFE5482:
	.size	_ZN9__gnu_cxx13new_allocatorINSt7__cxx1112basic_stringIcSt11char_traitsIcESaIcEEEED2Ev, .-_ZN9__gnu_cxx13new_allocatorINSt7__cxx1112basic_stringIcSt11char_traitsIcESaIcEEEED2Ev
	.weak	_ZN9__gnu_cxx13new_allocatorINSt7__cxx1112basic_stringIcSt11char_traitsIcESaIcEEEED1Ev
	.set	_ZN9__gnu_cxx13new_allocatorINSt7__cxx1112basic_stringIcSt11char_traitsIcESaIcEEEED1Ev,_ZN9__gnu_cxx13new_allocatorINSt7__cxx1112basic_stringIcSt11char_traitsIcESaIcEEEED2Ev
	.section	.text._ZNSt12_Vector_baseINSt7__cxx1112basic_stringIcSt11char_traitsIcESaIcEEESaIS5_EE13_M_deallocateEPS5_m,"axG",@progbits,_ZNSt12_Vector_baseINSt7__cxx1112basic_stringIcSt11char_traitsIcESaIcEEESaIS5_EE13_M_deallocateEPS5_m,comdat
	.align 2
	.weak	_ZNSt12_Vector_baseINSt7__cxx1112basic_stringIcSt11char_traitsIcESaIcEEESaIS5_EE13_M_deallocateEPS5_m
	.type	_ZNSt12_Vector_baseINSt7__cxx1112basic_stringIcSt11char_traitsIcESaIcEEESaIS5_EE13_M_deallocateEPS5_m, @function
_ZNSt12_Vector_baseINSt7__cxx1112basic_stringIcSt11char_traitsIcESaIcEEESaIS5_EE13_M_deallocateEPS5_m:
.LFB5484:
	.cfi_startproc
	endbr64
	pushq	%rbp
	.cfi_def_cfa_offset 16
	.cfi_offset 6, -16
	movq	%rsp, %rbp
	.cfi_def_cfa_register 6
	subq	$32, %rsp
	movq	%rdi, -8(%rbp)
	movq	%rsi, -16(%rbp)
	movq	%rdx, -24(%rbp)
	cmpq	$0, -16(%rbp)
	je	.L160
	movq	-8(%rbp), %rax
	movq	-24(%rbp), %rdx
	movq	-16(%rbp), %rcx
	movq	%rcx, %rsi
	movq	%rax, %rdi
	call	_ZNSt16allocator_traitsISaINSt7__cxx1112basic_stringIcSt11char_traitsIcESaIcEEEEE10deallocateERS6_PS5_m
.L160:
	nop
	leave
	.cfi_def_cfa 7, 8
	ret
	.cfi_endproc
.LFE5484:
	.size	_ZNSt12_Vector_baseINSt7__cxx1112basic_stringIcSt11char_traitsIcESaIcEEESaIS5_EE13_M_deallocateEPS5_m, .-_ZNSt12_Vector_baseINSt7__cxx1112basic_stringIcSt11char_traitsIcESaIcEEESaIS5_EE13_M_deallocateEPS5_m
	.section	.text._ZNSt12_Vector_baseINSt7__cxx1112basic_stringIcSt11char_traitsIcESaIcEEESaIS5_EE19_M_get_Tp_allocatorEv,"axG",@progbits,_ZNSt12_Vector_baseINSt7__cxx1112basic_stringIcSt11char_traitsIcESaIcEEESaIS5_EE19_M_get_Tp_allocatorEv,comdat
	.align 2
	.weak	_ZNSt12_Vector_baseINSt7__cxx1112basic_stringIcSt11char_traitsIcESaIcEEESaIS5_EE19_M_get_Tp_allocatorEv
	.type	_ZNSt12_Vector_baseINSt7__cxx1112basic_stringIcSt11char_traitsIcESaIcEEESaIS5_EE19_M_get_Tp_allocatorEv, @function
_ZNSt12_Vector_baseINSt7__cxx1112basic_stringIcSt11char_traitsIcESaIcEEESaIS5_EE19_M_get_Tp_allocatorEv:
.LFB5485:
	.cfi_startproc
	endbr64
	pushq	%rbp
	.cfi_def_cfa_offset 16
	.cfi_offset 6, -16
	movq	%rsp, %rbp
	.cfi_def_cfa_register 6
	movq	%rdi, -8(%rbp)
	movq	-8(%rbp), %rax
	popq	%rbp
	.cfi_def_cfa 7, 8
	ret
	.cfi_endproc
.LFE5485:
	.size	_ZNSt12_Vector_baseINSt7__cxx1112basic_stringIcSt11char_traitsIcESaIcEEESaIS5_EE19_M_get_Tp_allocatorEv, .-_ZNSt12_Vector_baseINSt7__cxx1112basic_stringIcSt11char_traitsIcESaIcEEESaIS5_EE19_M_get_Tp_allocatorEv
	.section	.text._ZSt8_DestroyIPNSt7__cxx1112basic_stringIcSt11char_traitsIcESaIcEEES5_EvT_S7_RSaIT0_E,"axG",@progbits,_ZSt8_DestroyIPNSt7__cxx1112basic_stringIcSt11char_traitsIcESaIcEEES5_EvT_S7_RSaIT0_E,comdat
	.weak	_ZSt8_DestroyIPNSt7__cxx1112basic_stringIcSt11char_traitsIcESaIcEEES5_EvT_S7_RSaIT0_E
	.type	_ZSt8_DestroyIPNSt7__cxx1112basic_stringIcSt11char_traitsIcESaIcEEES5_EvT_S7_RSaIT0_E, @function
_ZSt8_DestroyIPNSt7__cxx1112basic_stringIcSt11char_traitsIcESaIcEEES5_EvT_S7_RSaIT0_E:
.LFB5486:
	.cfi_startproc
	endbr64
	pushq	%rbp
	.cfi_def_cfa_offset 16
	.cfi_offset 6, -16
	movq	%rsp, %rbp
	.cfi_def_cfa_register 6
	subq	$32, %rsp
	movq	%rdi, -8(%rbp)
	movq	%rsi, -16(%rbp)
	movq	%rdx, -24(%rbp)
	movq	-16(%rbp), %rdx
	movq	-8(%rbp), %rax
	movq	%rdx, %rsi
	movq	%rax, %rdi
	call	_ZSt8_DestroyIPNSt7__cxx1112basic_stringIcSt11char_traitsIcESaIcEEEEvT_S7_
	nop
	leave
	.cfi_def_cfa 7, 8
	ret
	.cfi_endproc
.LFE5486:
	.size	_ZSt8_DestroyIPNSt7__cxx1112basic_stringIcSt11char_traitsIcESaIcEEES5_EvT_S7_RSaIT0_E, .-_ZSt8_DestroyIPNSt7__cxx1112basic_stringIcSt11char_traitsIcESaIcEEES5_EvT_S7_RSaIT0_E
	.section	.text._ZNKSt6vectorINSt7__cxx1112basic_stringIcSt11char_traitsIcESaIcEEESaIS5_EE4sizeEv,"axG",@progbits,_ZNKSt6vectorINSt7__cxx1112basic_stringIcSt11char_traitsIcESaIcEEESaIS5_EE4sizeEv,comdat
	.align 2
	.weak	_ZNKSt6vectorINSt7__cxx1112basic_stringIcSt11char_traitsIcESaIcEEESaIS5_EE4sizeEv
	.type	_ZNKSt6vectorINSt7__cxx1112basic_stringIcSt11char_traitsIcESaIcEEESaIS5_EE4sizeEv, @function
_ZNKSt6vectorINSt7__cxx1112basic_stringIcSt11char_traitsIcESaIcEEESaIS5_EE4sizeEv:
.LFB5487:
	.cfi_startproc
	endbr64
	pushq	%rbp
	.cfi_def_cfa_offset 16
	.cfi_offset 6, -16
	movq	%rsp, %rbp
	.cfi_def_cfa_register 6
	movq	%rdi, -8(%rbp)
	movq	-8(%rbp), %rax
	movq	8(%rax), %rdx
	movq	-8(%rbp), %rax
	movq	(%rax), %rcx
	movq	%rdx, %rax
	subq	%rcx, %rax
	sarq	$5, %rax
	popq	%rbp
	.cfi_def_cfa 7, 8
	ret
	.cfi_endproc
.LFE5487:
	.size	_ZNKSt6vectorINSt7__cxx1112basic_stringIcSt11char_traitsIcESaIcEEESaIS5_EE4sizeEv, .-_ZNKSt6vectorINSt7__cxx1112basic_stringIcSt11char_traitsIcESaIcEEESaIS5_EE4sizeEv
	.section	.text._ZNSaISt10unique_ptrI15TrafficLightImpSt14default_deleteIS0_EEEC2Ev,"axG",@progbits,_ZNSaISt10unique_ptrI15TrafficLightImpSt14default_deleteIS0_EEEC5Ev,comdat
	.align 2
	.weak	_ZNSaISt10unique_ptrI15TrafficLightImpSt14default_deleteIS0_EEEC2Ev
	.type	_ZNSaISt10unique_ptrI15TrafficLightImpSt14default_deleteIS0_EEEC2Ev, @function
_ZNSaISt10unique_ptrI15TrafficLightImpSt14default_deleteIS0_EEEC2Ev:
.LFB5625:
	.cfi_startproc
	endbr64
	pushq	%rbp
	.cfi_def_cfa_offset 16
	.cfi_offset 6, -16
	movq	%rsp, %rbp
	.cfi_def_cfa_register 6
	subq	$16, %rsp
	movq	%rdi, -8(%rbp)
	movq	-8(%rbp), %rax
	movq	%rax, %rdi
	call	_ZN9__gnu_cxx13new_allocatorISt10unique_ptrI15TrafficLightImpSt14default_deleteIS2_EEEC2Ev
	nop
	leave
	.cfi_def_cfa 7, 8
	ret
	.cfi_endproc
.LFE5625:
	.size	_ZNSaISt10unique_ptrI15TrafficLightImpSt14default_deleteIS0_EEEC2Ev, .-_ZNSaISt10unique_ptrI15TrafficLightImpSt14default_deleteIS0_EEEC2Ev
	.weak	_ZNSaISt10unique_ptrI15TrafficLightImpSt14default_deleteIS0_EEEC1Ev
	.set	_ZNSaISt10unique_ptrI15TrafficLightImpSt14default_deleteIS0_EEEC1Ev,_ZNSaISt10unique_ptrI15TrafficLightImpSt14default_deleteIS0_EEEC2Ev
	.section	.text._ZNSt12_Vector_baseISt10unique_ptrI15TrafficLightImpSt14default_deleteIS1_EESaIS4_EE17_Vector_impl_dataC2Ev,"axG",@progbits,_ZNSt12_Vector_baseISt10unique_ptrI15TrafficLightImpSt14default_deleteIS1_EESaIS4_EE17_Vector_impl_dataC5Ev,comdat
	.align 2
	.weak	_ZNSt12_Vector_baseISt10unique_ptrI15TrafficLightImpSt14default_deleteIS1_EESaIS4_EE17_Vector_impl_dataC2Ev
	.type	_ZNSt12_Vector_baseISt10unique_ptrI15TrafficLightImpSt14default_deleteIS1_EESaIS4_EE17_Vector_impl_dataC2Ev, @function
_ZNSt12_Vector_baseISt10unique_ptrI15TrafficLightImpSt14default_deleteIS1_EESaIS4_EE17_Vector_impl_dataC2Ev:
.LFB5628:
	.cfi_startproc
	endbr64
	pushq	%rbp
	.cfi_def_cfa_offset 16
	.cfi_offset 6, -16
	movq	%rsp, %rbp
	.cfi_def_cfa_register 6
	movq	%rdi, -8(%rbp)
	movq	-8(%rbp), %rax
	movq	$0, (%rax)
	movq	-8(%rbp), %rax
	movq	$0, 8(%rax)
	movq	-8(%rbp), %rax
	movq	$0, 16(%rax)
	nop
	popq	%rbp
	.cfi_def_cfa 7, 8
	ret
	.cfi_endproc
.LFE5628:
	.size	_ZNSt12_Vector_baseISt10unique_ptrI15TrafficLightImpSt14default_deleteIS1_EESaIS4_EE17_Vector_impl_dataC2Ev, .-_ZNSt12_Vector_baseISt10unique_ptrI15TrafficLightImpSt14default_deleteIS1_EESaIS4_EE17_Vector_impl_dataC2Ev
	.weak	_ZNSt12_Vector_baseISt10unique_ptrI15TrafficLightImpSt14default_deleteIS1_EESaIS4_EE17_Vector_impl_dataC1Ev
	.set	_ZNSt12_Vector_baseISt10unique_ptrI15TrafficLightImpSt14default_deleteIS1_EESaIS4_EE17_Vector_impl_dataC1Ev,_ZNSt12_Vector_baseISt10unique_ptrI15TrafficLightImpSt14default_deleteIS1_EESaIS4_EE17_Vector_impl_dataC2Ev
	.section	.text._ZN9__gnu_cxx13new_allocatorISt10unique_ptrI15TrafficLightImpSt14default_deleteIS2_EEED2Ev,"axG",@progbits,_ZN9__gnu_cxx13new_allocatorISt10unique_ptrI15TrafficLightImpSt14default_deleteIS2_EEED5Ev,comdat
	.align 2
	.weak	_ZN9__gnu_cxx13new_allocatorISt10unique_ptrI15TrafficLightImpSt14default_deleteIS2_EEED2Ev
	.type	_ZN9__gnu_cxx13new_allocatorISt10unique_ptrI15TrafficLightImpSt14default_deleteIS2_EEED2Ev, @function
_ZN9__gnu_cxx13new_allocatorISt10unique_ptrI15TrafficLightImpSt14default_deleteIS2_EEED2Ev:
.LFB5631:
	.cfi_startproc
	endbr64
	pushq	%rbp
	.cfi_def_cfa_offset 16
	.cfi_offset 6, -16
	movq	%rsp, %rbp
	.cfi_def_cfa_register 6
	movq	%rdi, -8(%rbp)
	nop
	popq	%rbp
	.cfi_def_cfa 7, 8
	ret
	.cfi_endproc
.LFE5631:
	.size	_ZN9__gnu_cxx13new_allocatorISt10unique_ptrI15TrafficLightImpSt14default_deleteIS2_EEED2Ev, .-_ZN9__gnu_cxx13new_allocatorISt10unique_ptrI15TrafficLightImpSt14default_deleteIS2_EEED2Ev
	.weak	_ZN9__gnu_cxx13new_allocatorISt10unique_ptrI15TrafficLightImpSt14default_deleteIS2_EEED1Ev
	.set	_ZN9__gnu_cxx13new_allocatorISt10unique_ptrI15TrafficLightImpSt14default_deleteIS2_EEED1Ev,_ZN9__gnu_cxx13new_allocatorISt10unique_ptrI15TrafficLightImpSt14default_deleteIS2_EEED2Ev
	.section	.text._ZNSt12_Vector_baseISt10unique_ptrI15TrafficLightImpSt14default_deleteIS1_EESaIS4_EE13_M_deallocateEPS4_m,"axG",@progbits,_ZNSt12_Vector_baseISt10unique_ptrI15TrafficLightImpSt14default_deleteIS1_EESaIS4_EE13_M_deallocateEPS4_m,comdat
	.align 2
	.weak	_ZNSt12_Vector_baseISt10unique_ptrI15TrafficLightImpSt14default_deleteIS1_EESaIS4_EE13_M_deallocateEPS4_m
	.type	_ZNSt12_Vector_baseISt10unique_ptrI15TrafficLightImpSt14default_deleteIS1_EESaIS4_EE13_M_deallocateEPS4_m, @function
_ZNSt12_Vector_baseISt10unique_ptrI15TrafficLightImpSt14default_deleteIS1_EESaIS4_EE13_M_deallocateEPS4_m:
.LFB5633:
	.cfi_startproc
	endbr64
	pushq	%rbp
	.cfi_def_cfa_offset 16
	.cfi_offset 6, -16
	movq	%rsp, %rbp
	.cfi_def_cfa_register 6
	subq	$32, %rsp
	movq	%rdi, -8(%rbp)
	movq	%rsi, -16(%rbp)
	movq	%rdx, -24(%rbp)
	cmpq	$0, -16(%rbp)
	je	.L171
	movq	-8(%rbp), %rax
	movq	-24(%rbp), %rdx
	movq	-16(%rbp), %rcx
	movq	%rcx, %rsi
	movq	%rax, %rdi
	call	_ZNSt16allocator_traitsISaISt10unique_ptrI15TrafficLightImpSt14default_deleteIS1_EEEE10deallocateERS5_PS4_m
.L171:
	nop
	leave
	.cfi_def_cfa 7, 8
	ret
	.cfi_endproc
.LFE5633:
	.size	_ZNSt12_Vector_baseISt10unique_ptrI15TrafficLightImpSt14default_deleteIS1_EESaIS4_EE13_M_deallocateEPS4_m, .-_ZNSt12_Vector_baseISt10unique_ptrI15TrafficLightImpSt14default_deleteIS1_EESaIS4_EE13_M_deallocateEPS4_m
	.section	.text._ZNSt12_Vector_baseISt10unique_ptrI15TrafficLightImpSt14default_deleteIS1_EESaIS4_EE19_M_get_Tp_allocatorEv,"axG",@progbits,_ZNSt12_Vector_baseISt10unique_ptrI15TrafficLightImpSt14default_deleteIS1_EESaIS4_EE19_M_get_Tp_allocatorEv,comdat
	.align 2
	.weak	_ZNSt12_Vector_baseISt10unique_ptrI15TrafficLightImpSt14default_deleteIS1_EESaIS4_EE19_M_get_Tp_allocatorEv
	.type	_ZNSt12_Vector_baseISt10unique_ptrI15TrafficLightImpSt14default_deleteIS1_EESaIS4_EE19_M_get_Tp_allocatorEv, @function
_ZNSt12_Vector_baseISt10unique_ptrI15TrafficLightImpSt14default_deleteIS1_EESaIS4_EE19_M_get_Tp_allocatorEv:
.LFB5634:
	.cfi_startproc
	endbr64
	pushq	%rbp
	.cfi_def_cfa_offset 16
	.cfi_offset 6, -16
	movq	%rsp, %rbp
	.cfi_def_cfa_register 6
	movq	%rdi, -8(%rbp)
	movq	-8(%rbp), %rax
	popq	%rbp
	.cfi_def_cfa 7, 8
	ret
	.cfi_endproc
.LFE5634:
	.size	_ZNSt12_Vector_baseISt10unique_ptrI15TrafficLightImpSt14default_deleteIS1_EESaIS4_EE19_M_get_Tp_allocatorEv, .-_ZNSt12_Vector_baseISt10unique_ptrI15TrafficLightImpSt14default_deleteIS1_EESaIS4_EE19_M_get_Tp_allocatorEv
	.section	.text._ZSt8_DestroyIPSt10unique_ptrI15TrafficLightImpSt14default_deleteIS1_EES4_EvT_S6_RSaIT0_E,"axG",@progbits,_ZSt8_DestroyIPSt10unique_ptrI15TrafficLightImpSt14default_deleteIS1_EES4_EvT_S6_RSaIT0_E,comdat
	.weak	_ZSt8_DestroyIPSt10unique_ptrI15TrafficLightImpSt14default_deleteIS1_EES4_EvT_S6_RSaIT0_E
	.type	_ZSt8_DestroyIPSt10unique_ptrI15TrafficLightImpSt14default_deleteIS1_EES4_EvT_S6_RSaIT0_E, @function
_ZSt8_DestroyIPSt10unique_ptrI15TrafficLightImpSt14default_deleteIS1_EES4_EvT_S6_RSaIT0_E:
.LFB5635:
	.cfi_startproc
	endbr64
	pushq	%rbp
	.cfi_def_cfa_offset 16
	.cfi_offset 6, -16
	movq	%rsp, %rbp
	.cfi_def_cfa_register 6
	subq	$32, %rsp
	movq	%rdi, -8(%rbp)
	movq	%rsi, -16(%rbp)
	movq	%rdx, -24(%rbp)
	movq	-16(%rbp), %rdx
	movq	-8(%rbp), %rax
	movq	%rdx, %rsi
	movq	%rax, %rdi
	call	_ZSt8_DestroyIPSt10unique_ptrI15TrafficLightImpSt14default_deleteIS1_EEEvT_S6_
	nop
	leave
	.cfi_def_cfa 7, 8
	ret
	.cfi_endproc
.LFE5635:
	.size	_ZSt8_DestroyIPSt10unique_ptrI15TrafficLightImpSt14default_deleteIS1_EES4_EvT_S6_RSaIT0_E, .-_ZSt8_DestroyIPSt10unique_ptrI15TrafficLightImpSt14default_deleteIS1_EES4_EvT_S6_RSaIT0_E
	.section	.text._ZNKSt16initializer_listINSt7__cxx1112basic_stringIcSt11char_traitsIcESaIcEEEE5beginEv,"axG",@progbits,_ZNKSt16initializer_listINSt7__cxx1112basic_stringIcSt11char_traitsIcESaIcEEEE5beginEv,comdat
	.align 2
	.weak	_ZNKSt16initializer_listINSt7__cxx1112basic_stringIcSt11char_traitsIcESaIcEEEE5beginEv
	.type	_ZNKSt16initializer_listINSt7__cxx1112basic_stringIcSt11char_traitsIcESaIcEEEE5beginEv, @function
_ZNKSt16initializer_listINSt7__cxx1112basic_stringIcSt11char_traitsIcESaIcEEEE5beginEv:
.LFB5636:
	.cfi_startproc
	endbr64
	pushq	%rbp
	.cfi_def_cfa_offset 16
	.cfi_offset 6, -16
	movq	%rsp, %rbp
	.cfi_def_cfa_register 6
	movq	%rdi, -8(%rbp)
	movq	-8(%rbp), %rax
	movq	(%rax), %rax
	popq	%rbp
	.cfi_def_cfa 7, 8
	ret
	.cfi_endproc
.LFE5636:
	.size	_ZNKSt16initializer_listINSt7__cxx1112basic_stringIcSt11char_traitsIcESaIcEEEE5beginEv, .-_ZNKSt16initializer_listINSt7__cxx1112basic_stringIcSt11char_traitsIcESaIcEEEE5beginEv
	.section	.text._ZNKSt16initializer_listINSt7__cxx1112basic_stringIcSt11char_traitsIcESaIcEEEE3endEv,"axG",@progbits,_ZNKSt16initializer_listINSt7__cxx1112basic_stringIcSt11char_traitsIcESaIcEEEE3endEv,comdat
	.align 2
	.weak	_ZNKSt16initializer_listINSt7__cxx1112basic_stringIcSt11char_traitsIcESaIcEEEE3endEv
	.type	_ZNKSt16initializer_listINSt7__cxx1112basic_stringIcSt11char_traitsIcESaIcEEEE3endEv, @function
_ZNKSt16initializer_listINSt7__cxx1112basic_stringIcSt11char_traitsIcESaIcEEEE3endEv:
.LFB5637:
	.cfi_startproc
	endbr64
	pushq	%rbp
	.cfi_def_cfa_offset 16
	.cfi_offset 6, -16
	movq	%rsp, %rbp
	.cfi_def_cfa_register 6
	pushq	%rbx
	subq	$24, %rsp
	.cfi_offset 3, -24
	movq	%rdi, -24(%rbp)
	movq	-24(%rbp), %rax
	movq	%rax, %rdi
	call	_ZNKSt16initializer_listINSt7__cxx1112basic_stringIcSt11char_traitsIcESaIcEEEE5beginEv
	movq	%rax, %rbx
	movq	-24(%rbp), %rax
	movq	%rax, %rdi
	call	_ZNKSt16initializer_listINSt7__cxx1112basic_stringIcSt11char_traitsIcESaIcEEEE4sizeEv
	salq	$5, %rax
	addq	%rbx, %rax
	movq	-8(%rbp), %rbx
	leave
	.cfi_def_cfa 7, 8
	ret
	.cfi_endproc
.LFE5637:
	.size	_ZNKSt16initializer_listINSt7__cxx1112basic_stringIcSt11char_traitsIcESaIcEEEE3endEv, .-_ZNKSt16initializer_listINSt7__cxx1112basic_stringIcSt11char_traitsIcESaIcEEEE3endEv
	.section	.text._ZSt8distanceIPKNSt7__cxx1112basic_stringIcSt11char_traitsIcESaIcEEEENSt15iterator_traitsIT_E15difference_typeES9_S9_,"axG",@progbits,_ZSt8distanceIPKNSt7__cxx1112basic_stringIcSt11char_traitsIcESaIcEEEENSt15iterator_traitsIT_E15difference_typeES9_S9_,comdat
	.weak	_ZSt8distanceIPKNSt7__cxx1112basic_stringIcSt11char_traitsIcESaIcEEEENSt15iterator_traitsIT_E15difference_typeES9_S9_
	.type	_ZSt8distanceIPKNSt7__cxx1112basic_stringIcSt11char_traitsIcESaIcEEEENSt15iterator_traitsIT_E15difference_typeES9_S9_, @function
_ZSt8distanceIPKNSt7__cxx1112basic_stringIcSt11char_traitsIcESaIcEEEENSt15iterator_traitsIT_E15difference_typeES9_S9_:
.LFB5639:
	.cfi_startproc
	endbr64
	pushq	%rbp
	.cfi_def_cfa_offset 16
	.cfi_offset 6, -16
	movq	%rsp, %rbp
	.cfi_def_cfa_register 6
	subq	$16, %rsp
	movq	%rdi, -8(%rbp)
	movq	%rsi, -16(%rbp)
	leaq	-8(%rbp), %rax
	movq	%rax, %rdi
	call	_ZSt19__iterator_categoryIPKNSt7__cxx1112basic_stringIcSt11char_traitsIcESaIcEEEENSt15iterator_traitsIT_E17iterator_categoryERKS9_
	movq	-8(%rbp), %rax
	movq	-16(%rbp), %rdx
	movq	%rdx, %rsi
	movq	%rax, %rdi
	call	_ZSt10__distanceIPKNSt7__cxx1112basic_stringIcSt11char_traitsIcESaIcEEEENSt15iterator_traitsIT_E15difference_typeES9_S9_St26random_access_iterator_tag
	leave
	.cfi_def_cfa 7, 8
	ret
	.cfi_endproc
.LFE5639:
	.size	_ZSt8distanceIPKNSt7__cxx1112basic_stringIcSt11char_traitsIcESaIcEEEENSt15iterator_traitsIT_E15difference_typeES9_S9_, .-_ZSt8distanceIPKNSt7__cxx1112basic_stringIcSt11char_traitsIcESaIcEEEENSt15iterator_traitsIT_E15difference_typeES9_S9_
	.section	.text._ZNSt6vectorINSt7__cxx1112basic_stringIcSt11char_traitsIcESaIcEEESaIS5_EE13_M_assign_auxIPKS5_EEvT_SB_St20forward_iterator_tag,"axG",@progbits,_ZNSt6vectorINSt7__cxx1112basic_stringIcSt11char_traitsIcESaIcEEESaIS5_EE13_M_assign_auxIPKS5_EEvT_SB_St20forward_iterator_tag,comdat
	.align 2
	.weak	_ZNSt6vectorINSt7__cxx1112basic_stringIcSt11char_traitsIcESaIcEEESaIS5_EE13_M_assign_auxIPKS5_EEvT_SB_St20forward_iterator_tag
	.type	_ZNSt6vectorINSt7__cxx1112basic_stringIcSt11char_traitsIcESaIcEEESaIS5_EE13_M_assign_auxIPKS5_EEvT_SB_St20forward_iterator_tag, @function
_ZNSt6vectorINSt7__cxx1112basic_stringIcSt11char_traitsIcESaIcEEESaIS5_EE13_M_assign_auxIPKS5_EEvT_SB_St20forward_iterator_tag:
.LFB5638:
	.cfi_startproc
	endbr64
	pushq	%rbp
	.cfi_def_cfa_offset 16
	.cfi_offset 6, -16
	movq	%rsp, %rbp
	.cfi_def_cfa_register 6
	subq	$80, %rsp
	movq	%rdi, -56(%rbp)
	movq	%rsi, -64(%rbp)
	movq	%rdx, -72(%rbp)
	movq	%fs:40, %rax
	movq	%rax, -8(%rbp)
	xorl	%eax, %eax
	movq	-72(%rbp), %rdx
	movq	-64(%rbp), %rax
	movq	%rdx, %rsi
	movq	%rax, %rdi
	call	_ZSt8distanceIPKNSt7__cxx1112basic_stringIcSt11char_traitsIcESaIcEEEENSt15iterator_traitsIT_E15difference_typeES9_S9_
	movq	%rax, -32(%rbp)
	movq	-56(%rbp), %rax
	movq	%rax, %rdi
	call	_ZNKSt6vectorINSt7__cxx1112basic_stringIcSt11char_traitsIcESaIcEEESaIS5_EE8capacityEv
	cmpq	%rax, -32(%rbp)
	seta	%al
	testb	%al, %al
	je	.L182
	movq	-56(%rbp), %rax
	movq	%rax, %rdi
	call	_ZNSt12_Vector_baseINSt7__cxx1112basic_stringIcSt11char_traitsIcESaIcEEESaIS5_EE19_M_get_Tp_allocatorEv
	movq	%rax, %rdx
	movq	-32(%rbp), %rax
	movq	%rdx, %rsi
	movq	%rax, %rdi
	call	_ZNSt6vectorINSt7__cxx1112basic_stringIcSt11char_traitsIcESaIcEEESaIS5_EE17_S_check_init_lenEmRKS6_
	movq	-72(%rbp), %rcx
	movq	-64(%rbp), %rdx
	movq	-32(%rbp), %rsi
	movq	-56(%rbp), %rax
	movq	%rax, %rdi
	call	_ZNSt6vectorINSt7__cxx1112basic_stringIcSt11char_traitsIcESaIcEEESaIS5_EE20_M_allocate_and_copyIPKS5_EEPS5_mT_SC_
	movq	%rax, -16(%rbp)
	movq	-56(%rbp), %rax
	movq	%rax, %rdi
	call	_ZNSt12_Vector_baseINSt7__cxx1112basic_stringIcSt11char_traitsIcESaIcEEESaIS5_EE19_M_get_Tp_allocatorEv
	movq	%rax, %rdx
	movq	-56(%rbp), %rax
	movq	8(%rax), %rcx
	movq	-56(%rbp), %rax
	movq	(%rax), %rax
	movq	%rcx, %rsi
	movq	%rax, %rdi
	call	_ZSt8_DestroyIPNSt7__cxx1112basic_stringIcSt11char_traitsIcESaIcEEES5_EvT_S7_RSaIT0_E
	movq	-56(%rbp), %rax
	movq	-56(%rbp), %rdx
	movq	16(%rdx), %rcx
	movq	-56(%rbp), %rdx
	movq	(%rdx), %rsi
	subq	%rsi, %rcx
	movq	%rcx, %rdx
	sarq	$5, %rdx
	movq	%rdx, %rsi
	movq	-56(%rbp), %rdx
	movq	(%rdx), %rcx
	movq	%rsi, %rdx
	movq	%rcx, %rsi
	movq	%rax, %rdi
	call	_ZNSt12_Vector_baseINSt7__cxx1112basic_stringIcSt11char_traitsIcESaIcEEESaIS5_EE13_M_deallocateEPS5_m
	movq	-56(%rbp), %rax
	movq	-16(%rbp), %rdx
	movq	%rdx, (%rax)
	movq	-56(%rbp), %rax
	movq	(%rax), %rdx
	movq	-32(%rbp), %rax
	salq	$5, %rax
	addq	%rax, %rdx
	movq	-56(%rbp), %rax
	movq	%rdx, 8(%rax)
	movq	-56(%rbp), %rax
	movq	8(%rax), %rdx
	movq	-56(%rbp), %rax
	movq	%rdx, 16(%rax)
	jmp	.L186
.L182:
	movq	-56(%rbp), %rax
	movq	%rax, %rdi
	call	_ZNKSt6vectorINSt7__cxx1112basic_stringIcSt11char_traitsIcESaIcEEESaIS5_EE4sizeEv
	cmpq	%rax, -32(%rbp)
	setbe	%al
	testb	%al, %al
	je	.L184
	movq	-56(%rbp), %rax
	movq	(%rax), %rdx
	movq	-72(%rbp), %rcx
	movq	-64(%rbp), %rax
	movq	%rcx, %rsi
	movq	%rax, %rdi
	call	_ZSt4copyIPKNSt7__cxx1112basic_stringIcSt11char_traitsIcESaIcEEEPS5_ET0_T_SA_S9_
	movq	%rax, %rdx
	movq	-56(%rbp), %rax
	movq	%rdx, %rsi
	movq	%rax, %rdi
	call	_ZNSt6vectorINSt7__cxx1112basic_stringIcSt11char_traitsIcESaIcEEESaIS5_EE15_M_erase_at_endEPS5_
	jmp	.L186
.L184:
	movq	-64(%rbp), %rax
	movq	%rax, -40(%rbp)
	movq	-56(%rbp), %rax
	movq	%rax, %rdi
	call	_ZNKSt6vectorINSt7__cxx1112basic_stringIcSt11char_traitsIcESaIcEEESaIS5_EE4sizeEv
	movq	%rax, %rdx
	leaq	-40(%rbp), %rax
	movq	%rdx, %rsi
	movq	%rax, %rdi
	call	_ZSt7advanceIPKNSt7__cxx1112basic_stringIcSt11char_traitsIcESaIcEEEmEvRT_T0_
	movq	-56(%rbp), %rax
	movq	(%rax), %rdx
	movq	-40(%rbp), %rcx
	movq	-64(%rbp), %rax
	movq	%rcx, %rsi
	movq	%rax, %rdi
	call	_ZSt4copyIPKNSt7__cxx1112basic_stringIcSt11char_traitsIcESaIcEEEPS5_ET0_T_SA_S9_
	movq	-56(%rbp), %rax
	movq	%rax, %rdi
	call	_ZNKSt6vectorINSt7__cxx1112basic_stringIcSt11char_traitsIcESaIcEEESaIS5_EE4sizeEv
	movq	%rax, %rdx
	movq	-32(%rbp), %rax
	subq	%rdx, %rax
	movq	%rax, -24(%rbp)
	movq	-56(%rbp), %rax
	movq	%rax, %rdi
	call	_ZNSt12_Vector_baseINSt7__cxx1112basic_stringIcSt11char_traitsIcESaIcEEESaIS5_EE19_M_get_Tp_allocatorEv
	movq	%rax, %rcx
	movq	-56(%rbp), %rax
	movq	8(%rax), %rdx
	movq	-40(%rbp), %rax
	movq	-72(%rbp), %rsi
	movq	%rax, %rdi
	call	_ZSt22__uninitialized_copy_aIPKNSt7__cxx1112basic_stringIcSt11char_traitsIcESaIcEEEPS5_S5_ET0_T_SA_S9_RSaIT1_E
	movq	-56(%rbp), %rdx
	movq	%rax, 8(%rdx)
.L186:
	nop
	movq	-8(%rbp), %rax
	subq	%fs:40, %rax
	je	.L185
	call	__stack_chk_fail@PLT
.L185:
	leave
	.cfi_def_cfa 7, 8
	ret
	.cfi_endproc
.LFE5638:
	.size	_ZNSt6vectorINSt7__cxx1112basic_stringIcSt11char_traitsIcESaIcEEESaIS5_EE13_M_assign_auxIPKS5_EEvT_SB_St20forward_iterator_tag, .-_ZNSt6vectorINSt7__cxx1112basic_stringIcSt11char_traitsIcESaIcEEESaIS5_EE13_M_assign_auxIPKS5_EEvT_SB_St20forward_iterator_tag
	.section	.text._ZSt7forwardIRKNSt7__cxx1112basic_stringIcSt11char_traitsIcESaIcEEEEOT_RNSt16remove_referenceIS8_E4typeE,"axG",@progbits,_ZSt7forwardIRKNSt7__cxx1112basic_stringIcSt11char_traitsIcESaIcEEEEOT_RNSt16remove_referenceIS8_E4typeE,comdat
	.weak	_ZSt7forwardIRKNSt7__cxx1112basic_stringIcSt11char_traitsIcESaIcEEEEOT_RNSt16remove_referenceIS8_E4typeE
	.type	_ZSt7forwardIRKNSt7__cxx1112basic_stringIcSt11char_traitsIcESaIcEEEEOT_RNSt16remove_referenceIS8_E4typeE, @function
_ZSt7forwardIRKNSt7__cxx1112basic_stringIcSt11char_traitsIcESaIcEEEEOT_RNSt16remove_referenceIS8_E4typeE:
.LFB5640:
	.cfi_startproc
	endbr64
	pushq	%rbp
	.cfi_def_cfa_offset 16
	.cfi_offset 6, -16
	movq	%rsp, %rbp
	.cfi_def_cfa_register 6
	movq	%rdi, -8(%rbp)
	movq	-8(%rbp), %rax
	popq	%rbp
	.cfi_def_cfa 7, 8
	ret
	.cfi_endproc
.LFE5640:
	.size	_ZSt7forwardIRKNSt7__cxx1112basic_stringIcSt11char_traitsIcESaIcEEEEOT_RNSt16remove_referenceIS8_E4typeE, .-_ZSt7forwardIRKNSt7__cxx1112basic_stringIcSt11char_traitsIcESaIcEEEEOT_RNSt16remove_referenceIS8_E4typeE
	.section	.text._ZNSt15__uniq_ptr_implI15TrafficLightImpSt14default_deleteIS0_EE6_M_ptrEv,"axG",@progbits,_ZNSt15__uniq_ptr_implI15TrafficLightImpSt14default_deleteIS0_EE6_M_ptrEv,comdat
	.align 2
	.weak	_ZNSt15__uniq_ptr_implI15TrafficLightImpSt14default_deleteIS0_EE6_M_ptrEv
	.type	_ZNSt15__uniq_ptr_implI15TrafficLightImpSt14default_deleteIS0_EE6_M_ptrEv, @function
_ZNSt15__uniq_ptr_implI15TrafficLightImpSt14default_deleteIS0_EE6_M_ptrEv:
.LFB5648:
	.cfi_startproc
	endbr64
	pushq	%rbp
	.cfi_def_cfa_offset 16
	.cfi_offset 6, -16
	movq	%rsp, %rbp
	.cfi_def_cfa_register 6
	subq	$16, %rsp
	movq	%rdi, -8(%rbp)
	movq	-8(%rbp), %rax
	movq	%rax, %rdi
	call	_ZSt3getILm0EJP15TrafficLightImpSt14default_deleteIS0_EEERNSt13tuple_elementIXT_ESt5tupleIJDpT0_EEE4typeERS8_
	leave
	.cfi_def_cfa 7, 8
	ret
	.cfi_endproc
.LFE5648:
	.size	_ZNSt15__uniq_ptr_implI15TrafficLightImpSt14default_deleteIS0_EE6_M_ptrEv, .-_ZNSt15__uniq_ptr_implI15TrafficLightImpSt14default_deleteIS0_EE6_M_ptrEv
	.section	.text._ZNSt10unique_ptrI15TrafficLightImpSt14default_deleteIS0_EE11get_deleterEv,"axG",@progbits,_ZNSt10unique_ptrI15TrafficLightImpSt14default_deleteIS0_EE11get_deleterEv,comdat
	.align 2
	.weak	_ZNSt10unique_ptrI15TrafficLightImpSt14default_deleteIS0_EE11get_deleterEv
	.type	_ZNSt10unique_ptrI15TrafficLightImpSt14default_deleteIS0_EE11get_deleterEv, @function
_ZNSt10unique_ptrI15TrafficLightImpSt14default_deleteIS0_EE11get_deleterEv:
.LFB5649:
	.cfi_startproc
	endbr64
	pushq	%rbp
	.cfi_def_cfa_offset 16
	.cfi_offset 6, -16
	movq	%rsp, %rbp
	.cfi_def_cfa_register 6
	subq	$16, %rsp
	movq	%rdi, -8(%rbp)
	movq	-8(%rbp), %rax
	movq	%rax, %rdi
	call	_ZNSt15__uniq_ptr_implI15TrafficLightImpSt14default_deleteIS0_EE10_M_deleterEv
	leave
	.cfi_def_cfa 7, 8
	ret
	.cfi_endproc
.LFE5649:
	.size	_ZNSt10unique_ptrI15TrafficLightImpSt14default_deleteIS0_EE11get_deleterEv, .-_ZNSt10unique_ptrI15TrafficLightImpSt14default_deleteIS0_EE11get_deleterEv
	.section	.text._ZSt4moveIRP15TrafficLightImpEONSt16remove_referenceIT_E4typeEOS4_,"axG",@progbits,_ZSt4moveIRP15TrafficLightImpEONSt16remove_referenceIT_E4typeEOS4_,comdat
	.weak	_ZSt4moveIRP15TrafficLightImpEONSt16remove_referenceIT_E4typeEOS4_
	.type	_ZSt4moveIRP15TrafficLightImpEONSt16remove_referenceIT_E4typeEOS4_, @function
_ZSt4moveIRP15TrafficLightImpEONSt16remove_referenceIT_E4typeEOS4_:
.LFB5650:
	.cfi_startproc
	endbr64
	pushq	%rbp
	.cfi_def_cfa_offset 16
	.cfi_offset 6, -16
	movq	%rsp, %rbp
	.cfi_def_cfa_register 6
	movq	%rdi, -8(%rbp)
	movq	-8(%rbp), %rax
	popq	%rbp
	.cfi_def_cfa 7, 8
	ret
	.cfi_endproc
.LFE5650:
	.size	_ZSt4moveIRP15TrafficLightImpEONSt16remove_referenceIT_E4typeEOS4_, .-_ZSt4moveIRP15TrafficLightImpEONSt16remove_referenceIT_E4typeEOS4_
	.section	.text._ZNKSt14default_deleteI15TrafficLightImpEclEPS0_,"axG",@progbits,_ZNKSt14default_deleteI15TrafficLightImpEclEPS0_,comdat
	.align 2
	.weak	_ZNKSt14default_deleteI15TrafficLightImpEclEPS0_
	.type	_ZNKSt14default_deleteI15TrafficLightImpEclEPS0_, @function
_ZNKSt14default_deleteI15TrafficLightImpEclEPS0_:
.LFB5651:
	.cfi_startproc
	endbr64
	pushq	%rbp
	.cfi_def_cfa_offset 16
	.cfi_offset 6, -16
	movq	%rsp, %rbp
	.cfi_def_cfa_register 6
	pushq	%rbx
	subq	$24, %rsp
	.cfi_offset 3, -24
	movq	%rdi, -24(%rbp)
	movq	%rsi, -32(%rbp)
	movq	-32(%rbp), %rbx
	testq	%rbx, %rbx
	je	.L197
	movq	%rbx, %rdi
	call	_ZN15TrafficLightImpD1Ev@PLT
	movl	$144, %esi
	movq	%rbx, %rdi
	call	_ZdlPvm@PLT
.L197:
	nop
	movq	-8(%rbp), %rbx
	leave
	.cfi_def_cfa 7, 8
	ret
	.cfi_endproc
.LFE5651:
	.size	_ZNKSt14default_deleteI15TrafficLightImpEclEPS0_, .-_ZNKSt14default_deleteI15TrafficLightImpEclEPS0_
	.section	.text._ZN9__gnu_cxx17__is_null_pointerIKcEEbPT_,"axG",@progbits,_ZN9__gnu_cxx17__is_null_pointerIKcEEbPT_,comdat
	.weak	_ZN9__gnu_cxx17__is_null_pointerIKcEEbPT_
	.type	_ZN9__gnu_cxx17__is_null_pointerIKcEEbPT_, @function
_ZN9__gnu_cxx17__is_null_pointerIKcEEbPT_:
.LFB5691:
	.cfi_startproc
	endbr64
	pushq	%rbp
	.cfi_def_cfa_offset 16
	.cfi_offset 6, -16
	movq	%rsp, %rbp
	.cfi_def_cfa_register 6
	movq	%rdi, -8(%rbp)
	cmpq	$0, -8(%rbp)
	sete	%al
	popq	%rbp
	.cfi_def_cfa 7, 8
	ret
	.cfi_endproc
.LFE5691:
	.size	_ZN9__gnu_cxx17__is_null_pointerIKcEEbPT_, .-_ZN9__gnu_cxx17__is_null_pointerIKcEEbPT_
	.section	.text._ZSt19__iterator_categoryIPKcENSt15iterator_traitsIT_E17iterator_categoryERKS3_,"axG",@progbits,_ZSt19__iterator_categoryIPKcENSt15iterator_traitsIT_E17iterator_categoryERKS3_,comdat
	.weak	_ZSt19__iterator_categoryIPKcENSt15iterator_traitsIT_E17iterator_categoryERKS3_
	.type	_ZSt19__iterator_categoryIPKcENSt15iterator_traitsIT_E17iterator_categoryERKS3_, @function
_ZSt19__iterator_categoryIPKcENSt15iterator_traitsIT_E17iterator_categoryERKS3_:
.LFB5692:
	.cfi_startproc
	endbr64
	pushq	%rbp
	.cfi_def_cfa_offset 16
	.cfi_offset 6, -16
	movq	%rsp, %rbp
	.cfi_def_cfa_register 6
	movq	%rdi, -8(%rbp)
	popq	%rbp
	.cfi_def_cfa 7, 8
	ret
	.cfi_endproc
.LFE5692:
	.size	_ZSt19__iterator_categoryIPKcENSt15iterator_traitsIT_E17iterator_categoryERKS3_, .-_ZSt19__iterator_categoryIPKcENSt15iterator_traitsIT_E17iterator_categoryERKS3_
	.section	.text._ZSt10__distanceIPKcENSt15iterator_traitsIT_E15difference_typeES3_S3_St26random_access_iterator_tag,"axG",@progbits,_ZSt10__distanceIPKcENSt15iterator_traitsIT_E15difference_typeES3_S3_St26random_access_iterator_tag,comdat
	.weak	_ZSt10__distanceIPKcENSt15iterator_traitsIT_E15difference_typeES3_S3_St26random_access_iterator_tag
	.type	_ZSt10__distanceIPKcENSt15iterator_traitsIT_E15difference_typeES3_S3_St26random_access_iterator_tag, @function
_ZSt10__distanceIPKcENSt15iterator_traitsIT_E15difference_typeES3_S3_St26random_access_iterator_tag:
.LFB5693:
	.cfi_startproc
	endbr64
	pushq	%rbp
	.cfi_def_cfa_offset 16
	.cfi_offset 6, -16
	movq	%rsp, %rbp
	.cfi_def_cfa_register 6
	movq	%rdi, -8(%rbp)
	movq	%rsi, -16(%rbp)
	movq	-16(%rbp), %rax
	subq	-8(%rbp), %rax
	popq	%rbp
	.cfi_def_cfa 7, 8
	ret
	.cfi_endproc
.LFE5693:
	.size	_ZSt10__distanceIPKcENSt15iterator_traitsIT_E15difference_typeES3_S3_St26random_access_iterator_tag, .-_ZSt10__distanceIPKcENSt15iterator_traitsIT_E15difference_typeES3_S3_St26random_access_iterator_tag
	.section	.text._ZN9__gnu_cxx13new_allocatorINSt7__cxx1112basic_stringIcSt11char_traitsIcESaIcEEEEC2Ev,"axG",@progbits,_ZN9__gnu_cxx13new_allocatorINSt7__cxx1112basic_stringIcSt11char_traitsIcESaIcEEEEC5Ev,comdat
	.align 2
	.weak	_ZN9__gnu_cxx13new_allocatorINSt7__cxx1112basic_stringIcSt11char_traitsIcESaIcEEEEC2Ev
	.type	_ZN9__gnu_cxx13new_allocatorINSt7__cxx1112basic_stringIcSt11char_traitsIcESaIcEEEEC2Ev, @function
_ZN9__gnu_cxx13new_allocatorINSt7__cxx1112basic_stringIcSt11char_traitsIcESaIcEEEEC2Ev:
.LFB5745:
	.cfi_startproc
	endbr64
	pushq	%rbp
	.cfi_def_cfa_offset 16
	.cfi_offset 6, -16
	movq	%rsp, %rbp
	.cfi_def_cfa_register 6
	movq	%rdi, -8(%rbp)
	nop
	popq	%rbp
	.cfi_def_cfa 7, 8
	ret
	.cfi_endproc
.LFE5745:
	.size	_ZN9__gnu_cxx13new_allocatorINSt7__cxx1112basic_stringIcSt11char_traitsIcESaIcEEEEC2Ev, .-_ZN9__gnu_cxx13new_allocatorINSt7__cxx1112basic_stringIcSt11char_traitsIcESaIcEEEEC2Ev
	.weak	_ZN9__gnu_cxx13new_allocatorINSt7__cxx1112basic_stringIcSt11char_traitsIcESaIcEEEEC1Ev
	.set	_ZN9__gnu_cxx13new_allocatorINSt7__cxx1112basic_stringIcSt11char_traitsIcESaIcEEEEC1Ev,_ZN9__gnu_cxx13new_allocatorINSt7__cxx1112basic_stringIcSt11char_traitsIcESaIcEEEEC2Ev
	.section	.text._ZNSt16allocator_traitsISaINSt7__cxx1112basic_stringIcSt11char_traitsIcESaIcEEEEE10deallocateERS6_PS5_m,"axG",@progbits,_ZNSt16allocator_traitsISaINSt7__cxx1112basic_stringIcSt11char_traitsIcESaIcEEEEE10deallocateERS6_PS5_m,comdat
	.weak	_ZNSt16allocator_traitsISaINSt7__cxx1112basic_stringIcSt11char_traitsIcESaIcEEEEE10deallocateERS6_PS5_m
	.type	_ZNSt16allocator_traitsISaINSt7__cxx1112basic_stringIcSt11char_traitsIcESaIcEEEEE10deallocateERS6_PS5_m, @function
_ZNSt16allocator_traitsISaINSt7__cxx1112basic_stringIcSt11char_traitsIcESaIcEEEEE10deallocateERS6_PS5_m:
.LFB5747:
	.cfi_startproc
	endbr64
	pushq	%rbp
	.cfi_def_cfa_offset 16
	.cfi_offset 6, -16
	movq	%rsp, %rbp
	.cfi_def_cfa_register 6
	subq	$32, %rsp
	movq	%rdi, -8(%rbp)
	movq	%rsi, -16(%rbp)
	movq	%rdx, -24(%rbp)
	movq	-24(%rbp), %rdx
	movq	-16(%rbp), %rcx
	movq	-8(%rbp), %rax
	movq	%rcx, %rsi
	movq	%rax, %rdi
	call	_ZN9__gnu_cxx13new_allocatorINSt7__cxx1112basic_stringIcSt11char_traitsIcESaIcEEEE10deallocateEPS6_m
	nop
	leave
	.cfi_def_cfa 7, 8
	ret
	.cfi_endproc
.LFE5747:
	.size	_ZNSt16allocator_traitsISaINSt7__cxx1112basic_stringIcSt11char_traitsIcESaIcEEEEE10deallocateERS6_PS5_m, .-_ZNSt16allocator_traitsISaINSt7__cxx1112basic_stringIcSt11char_traitsIcESaIcEEEEE10deallocateERS6_PS5_m
	.section	.text._ZSt8_DestroyIPNSt7__cxx1112basic_stringIcSt11char_traitsIcESaIcEEEEvT_S7_,"axG",@progbits,_ZSt8_DestroyIPNSt7__cxx1112basic_stringIcSt11char_traitsIcESaIcEEEEvT_S7_,comdat
	.weak	_ZSt8_DestroyIPNSt7__cxx1112basic_stringIcSt11char_traitsIcESaIcEEEEvT_S7_
	.type	_ZSt8_DestroyIPNSt7__cxx1112basic_stringIcSt11char_traitsIcESaIcEEEEvT_S7_, @function
_ZSt8_DestroyIPNSt7__cxx1112basic_stringIcSt11char_traitsIcESaIcEEEEvT_S7_:
.LFB5748:
	.cfi_startproc
	endbr64
	pushq	%rbp
	.cfi_def_cfa_offset 16
	.cfi_offset 6, -16
	movq	%rsp, %rbp
	.cfi_def_cfa_register 6
	subq	$16, %rsp
	movq	%rdi, -8(%rbp)
	movq	%rsi, -16(%rbp)
	movq	-16(%rbp), %rdx
	movq	-8(%rbp), %rax
	movq	%rdx, %rsi
	movq	%rax, %rdi
	call	_ZNSt12_Destroy_auxILb0EE9__destroyIPNSt7__cxx1112basic_stringIcSt11char_traitsIcESaIcEEEEEvT_S9_
	nop
	leave
	.cfi_def_cfa 7, 8
	ret
	.cfi_endproc
.LFE5748:
	.size	_ZSt8_DestroyIPNSt7__cxx1112basic_stringIcSt11char_traitsIcESaIcEEEEvT_S7_, .-_ZSt8_DestroyIPNSt7__cxx1112basic_stringIcSt11char_traitsIcESaIcEEEEvT_S7_
	.section	.text._ZN9__gnu_cxx13new_allocatorISt10unique_ptrI15TrafficLightImpSt14default_deleteIS2_EEEC2Ev,"axG",@progbits,_ZN9__gnu_cxx13new_allocatorISt10unique_ptrI15TrafficLightImpSt14default_deleteIS2_EEEC5Ev,comdat
	.align 2
	.weak	_ZN9__gnu_cxx13new_allocatorISt10unique_ptrI15TrafficLightImpSt14default_deleteIS2_EEEC2Ev
	.type	_ZN9__gnu_cxx13new_allocatorISt10unique_ptrI15TrafficLightImpSt14default_deleteIS2_EEEC2Ev, @function
_ZN9__gnu_cxx13new_allocatorISt10unique_ptrI15TrafficLightImpSt14default_deleteIS2_EEEC2Ev:
.LFB5873:
	.cfi_startproc
	endbr64
	pushq	%rbp
	.cfi_def_cfa_offset 16
	.cfi_offset 6, -16
	movq	%rsp, %rbp
	.cfi_def_cfa_register 6
	movq	%rdi, -8(%rbp)
	nop
	popq	%rbp
	.cfi_def_cfa 7, 8
	ret
	.cfi_endproc
.LFE5873:
	.size	_ZN9__gnu_cxx13new_allocatorISt10unique_ptrI15TrafficLightImpSt14default_deleteIS2_EEEC2Ev, .-_ZN9__gnu_cxx13new_allocatorISt10unique_ptrI15TrafficLightImpSt14default_deleteIS2_EEEC2Ev
	.weak	_ZN9__gnu_cxx13new_allocatorISt10unique_ptrI15TrafficLightImpSt14default_deleteIS2_EEEC1Ev
	.set	_ZN9__gnu_cxx13new_allocatorISt10unique_ptrI15TrafficLightImpSt14default_deleteIS2_EEEC1Ev,_ZN9__gnu_cxx13new_allocatorISt10unique_ptrI15TrafficLightImpSt14default_deleteIS2_EEEC2Ev
	.section	.text._ZNSt16allocator_traitsISaISt10unique_ptrI15TrafficLightImpSt14default_deleteIS1_EEEE10deallocateERS5_PS4_m,"axG",@progbits,_ZNSt16allocator_traitsISaISt10unique_ptrI15TrafficLightImpSt14default_deleteIS1_EEEE10deallocateERS5_PS4_m,comdat
	.weak	_ZNSt16allocator_traitsISaISt10unique_ptrI15TrafficLightImpSt14default_deleteIS1_EEEE10deallocateERS5_PS4_m
	.type	_ZNSt16allocator_traitsISaISt10unique_ptrI15TrafficLightImpSt14default_deleteIS1_EEEE10deallocateERS5_PS4_m, @function
_ZNSt16allocator_traitsISaISt10unique_ptrI15TrafficLightImpSt14default_deleteIS1_EEEE10deallocateERS5_PS4_m:
.LFB5875:
	.cfi_startproc
	endbr64
	pushq	%rbp
	.cfi_def_cfa_offset 16
	.cfi_offset 6, -16
	movq	%rsp, %rbp
	.cfi_def_cfa_register 6
	subq	$32, %rsp
	movq	%rdi, -8(%rbp)
	movq	%rsi, -16(%rbp)
	movq	%rdx, -24(%rbp)
	movq	-24(%rbp), %rdx
	movq	-16(%rbp), %rcx
	movq	-8(%rbp), %rax
	movq	%rcx, %rsi
	movq	%rax, %rdi
	call	_ZN9__gnu_cxx13new_allocatorISt10unique_ptrI15TrafficLightImpSt14default_deleteIS2_EEE10deallocateEPS5_m
	nop
	leave
	.cfi_def_cfa 7, 8
	ret
	.cfi_endproc
.LFE5875:
	.size	_ZNSt16allocator_traitsISaISt10unique_ptrI15TrafficLightImpSt14default_deleteIS1_EEEE10deallocateERS5_PS4_m, .-_ZNSt16allocator_traitsISaISt10unique_ptrI15TrafficLightImpSt14default_deleteIS1_EEEE10deallocateERS5_PS4_m
	.section	.text._ZSt8_DestroyIPSt10unique_ptrI15TrafficLightImpSt14default_deleteIS1_EEEvT_S6_,"axG",@progbits,_ZSt8_DestroyIPSt10unique_ptrI15TrafficLightImpSt14default_deleteIS1_EEEvT_S6_,comdat
	.weak	_ZSt8_DestroyIPSt10unique_ptrI15TrafficLightImpSt14default_deleteIS1_EEEvT_S6_
	.type	_ZSt8_DestroyIPSt10unique_ptrI15TrafficLightImpSt14default_deleteIS1_EEEvT_S6_, @function
_ZSt8_DestroyIPSt10unique_ptrI15TrafficLightImpSt14default_deleteIS1_EEEvT_S6_:
.LFB5876:
	.cfi_startproc
	endbr64
	pushq	%rbp
	.cfi_def_cfa_offset 16
	.cfi_offset 6, -16
	movq	%rsp, %rbp
	.cfi_def_cfa_register 6
	subq	$16, %rsp
	movq	%rdi, -8(%rbp)
	movq	%rsi, -16(%rbp)
	movq	-16(%rbp), %rdx
	movq	-8(%rbp), %rax
	movq	%rdx, %rsi
	movq	%rax, %rdi
	call	_ZNSt12_Destroy_auxILb0EE9__destroyIPSt10unique_ptrI15TrafficLightImpSt14default_deleteIS3_EEEEvT_S8_
	nop
	leave
	.cfi_def_cfa 7, 8
	ret
	.cfi_endproc
.LFE5876:
	.size	_ZSt8_DestroyIPSt10unique_ptrI15TrafficLightImpSt14default_deleteIS1_EEEvT_S6_, .-_ZSt8_DestroyIPSt10unique_ptrI15TrafficLightImpSt14default_deleteIS1_EEEvT_S6_
	.section	.text._ZNKSt16initializer_listINSt7__cxx1112basic_stringIcSt11char_traitsIcESaIcEEEE4sizeEv,"axG",@progbits,_ZNKSt16initializer_listINSt7__cxx1112basic_stringIcSt11char_traitsIcESaIcEEEE4sizeEv,comdat
	.align 2
	.weak	_ZNKSt16initializer_listINSt7__cxx1112basic_stringIcSt11char_traitsIcESaIcEEEE4sizeEv
	.type	_ZNKSt16initializer_listINSt7__cxx1112basic_stringIcSt11char_traitsIcESaIcEEEE4sizeEv, @function
_ZNKSt16initializer_listINSt7__cxx1112basic_stringIcSt11char_traitsIcESaIcEEEE4sizeEv:
.LFB5877:
	.cfi_startproc
	endbr64
	pushq	%rbp
	.cfi_def_cfa_offset 16
	.cfi_offset 6, -16
	movq	%rsp, %rbp
	.cfi_def_cfa_register 6
	movq	%rdi, -8(%rbp)
	movq	-8(%rbp), %rax
	movq	8(%rax), %rax
	popq	%rbp
	.cfi_def_cfa 7, 8
	ret
	.cfi_endproc
.LFE5877:
	.size	_ZNKSt16initializer_listINSt7__cxx1112basic_stringIcSt11char_traitsIcESaIcEEEE4sizeEv, .-_ZNKSt16initializer_listINSt7__cxx1112basic_stringIcSt11char_traitsIcESaIcEEEE4sizeEv
	.section	.text._ZSt19__iterator_categoryIPKNSt7__cxx1112basic_stringIcSt11char_traitsIcESaIcEEEENSt15iterator_traitsIT_E17iterator_categoryERKS9_,"axG",@progbits,_ZSt19__iterator_categoryIPKNSt7__cxx1112basic_stringIcSt11char_traitsIcESaIcEEEENSt15iterator_traitsIT_E17iterator_categoryERKS9_,comdat
	.weak	_ZSt19__iterator_categoryIPKNSt7__cxx1112basic_stringIcSt11char_traitsIcESaIcEEEENSt15iterator_traitsIT_E17iterator_categoryERKS9_
	.type	_ZSt19__iterator_categoryIPKNSt7__cxx1112basic_stringIcSt11char_traitsIcESaIcEEEENSt15iterator_traitsIT_E17iterator_categoryERKS9_, @function
_ZSt19__iterator_categoryIPKNSt7__cxx1112basic_stringIcSt11char_traitsIcESaIcEEEENSt15iterator_traitsIT_E17iterator_categoryERKS9_:
.LFB5878:
	.cfi_startproc
	endbr64
	pushq	%rbp
	.cfi_def_cfa_offset 16
	.cfi_offset 6, -16
	movq	%rsp, %rbp
	.cfi_def_cfa_register 6
	movq	%rdi, -8(%rbp)
	popq	%rbp
	.cfi_def_cfa 7, 8
	ret
	.cfi_endproc
.LFE5878:
	.size	_ZSt19__iterator_categoryIPKNSt7__cxx1112basic_stringIcSt11char_traitsIcESaIcEEEENSt15iterator_traitsIT_E17iterator_categoryERKS9_, .-_ZSt19__iterator_categoryIPKNSt7__cxx1112basic_stringIcSt11char_traitsIcESaIcEEEENSt15iterator_traitsIT_E17iterator_categoryERKS9_
	.section	.text._ZSt10__distanceIPKNSt7__cxx1112basic_stringIcSt11char_traitsIcESaIcEEEENSt15iterator_traitsIT_E15difference_typeES9_S9_St26random_access_iterator_tag,"axG",@progbits,_ZSt10__distanceIPKNSt7__cxx1112basic_stringIcSt11char_traitsIcESaIcEEEENSt15iterator_traitsIT_E15difference_typeES9_S9_St26random_access_iterator_tag,comdat
	.weak	_ZSt10__distanceIPKNSt7__cxx1112basic_stringIcSt11char_traitsIcESaIcEEEENSt15iterator_traitsIT_E15difference_typeES9_S9_St26random_access_iterator_tag
	.type	_ZSt10__distanceIPKNSt7__cxx1112basic_stringIcSt11char_traitsIcESaIcEEEENSt15iterator_traitsIT_E15difference_typeES9_S9_St26random_access_iterator_tag, @function
_ZSt10__distanceIPKNSt7__cxx1112basic_stringIcSt11char_traitsIcESaIcEEEENSt15iterator_traitsIT_E15difference_typeES9_S9_St26random_access_iterator_tag:
.LFB5879:
	.cfi_startproc
	endbr64
	pushq	%rbp
	.cfi_def_cfa_offset 16
	.cfi_offset 6, -16
	movq	%rsp, %rbp
	.cfi_def_cfa_register 6
	movq	%rdi, -8(%rbp)
	movq	%rsi, -16(%rbp)
	movq	-16(%rbp), %rax
	subq	-8(%rbp), %rax
	sarq	$5, %rax
	popq	%rbp
	.cfi_def_cfa 7, 8
	ret
	.cfi_endproc
.LFE5879:
	.size	_ZSt10__distanceIPKNSt7__cxx1112basic_stringIcSt11char_traitsIcESaIcEEEENSt15iterator_traitsIT_E15difference_typeES9_S9_St26random_access_iterator_tag, .-_ZSt10__distanceIPKNSt7__cxx1112basic_stringIcSt11char_traitsIcESaIcEEEENSt15iterator_traitsIT_E15difference_typeES9_S9_St26random_access_iterator_tag
	.section	.text._ZNKSt6vectorINSt7__cxx1112basic_stringIcSt11char_traitsIcESaIcEEESaIS5_EE8capacityEv,"axG",@progbits,_ZNKSt6vectorINSt7__cxx1112basic_stringIcSt11char_traitsIcESaIcEEESaIS5_EE8capacityEv,comdat
	.align 2
	.weak	_ZNKSt6vectorINSt7__cxx1112basic_stringIcSt11char_traitsIcESaIcEEESaIS5_EE8capacityEv
	.type	_ZNKSt6vectorINSt7__cxx1112basic_stringIcSt11char_traitsIcESaIcEEESaIS5_EE8capacityEv, @function
_ZNKSt6vectorINSt7__cxx1112basic_stringIcSt11char_traitsIcESaIcEEESaIS5_EE8capacityEv:
.LFB5880:
	.cfi_startproc
	endbr64
	pushq	%rbp
	.cfi_def_cfa_offset 16
	.cfi_offset 6, -16
	movq	%rsp, %rbp
	.cfi_def_cfa_register 6
	movq	%rdi, -8(%rbp)
	movq	-8(%rbp), %rax
	movq	16(%rax), %rdx
	movq	-8(%rbp), %rax
	movq	(%rax), %rcx
	movq	%rdx, %rax
	subq	%rcx, %rax
	sarq	$5, %rax
	popq	%rbp
	.cfi_def_cfa 7, 8
	ret
	.cfi_endproc
.LFE5880:
	.size	_ZNKSt6vectorINSt7__cxx1112basic_stringIcSt11char_traitsIcESaIcEEESaIS5_EE8capacityEv, .-_ZNKSt6vectorINSt7__cxx1112basic_stringIcSt11char_traitsIcESaIcEEESaIS5_EE8capacityEv
	.section	.rodata
	.align 8
.LC18:
	.string	"cannot create std::vector larger than max_size()"
	.section	.text._ZNSt6vectorINSt7__cxx1112basic_stringIcSt11char_traitsIcESaIcEEESaIS5_EE17_S_check_init_lenEmRKS6_,"axG",@progbits,_ZNSt6vectorINSt7__cxx1112basic_stringIcSt11char_traitsIcESaIcEEESaIS5_EE17_S_check_init_lenEmRKS6_,comdat
	.weak	_ZNSt6vectorINSt7__cxx1112basic_stringIcSt11char_traitsIcESaIcEEESaIS5_EE17_S_check_init_lenEmRKS6_
	.type	_ZNSt6vectorINSt7__cxx1112basic_stringIcSt11char_traitsIcESaIcEEESaIS5_EE17_S_check_init_lenEmRKS6_, @function
_ZNSt6vectorINSt7__cxx1112basic_stringIcSt11char_traitsIcESaIcEEESaIS5_EE17_S_check_init_lenEmRKS6_:
.LFB5881:
	.cfi_startproc
	endbr64
	pushq	%rbp
	.cfi_def_cfa_offset 16
	.cfi_offset 6, -16
	movq	%rsp, %rbp
	.cfi_def_cfa_register 6
	pushq	%rbx
	subq	$40, %rsp
	.cfi_offset 3, -24
	movq	%rdi, -40(%rbp)
	movq	%rsi, -48(%rbp)
	movq	%fs:40, %rax
	movq	%rax, -24(%rbp)
	xorl	%eax, %eax
	movq	-48(%rbp), %rdx
	leaq	-25(%rbp), %rax
	movq	%rdx, %rsi
	movq	%rax, %rdi
	call	_ZNSaINSt7__cxx1112basic_stringIcSt11char_traitsIcESaIcEEEEC1ERKS5_
	leaq	-25(%rbp), %rax
	movq	%rax, %rdi
	call	_ZNSt6vectorINSt7__cxx1112basic_stringIcSt11char_traitsIcESaIcEEESaIS5_EE11_S_max_sizeERKS6_
	cmpq	%rax, -40(%rbp)
	seta	%bl
	leaq	-25(%rbp), %rax
	movq	%rax, %rdi
	call	_ZNSaINSt7__cxx1112basic_stringIcSt11char_traitsIcESaIcEEEED1Ev
	testb	%bl, %bl
	je	.L219
	leaq	.LC18(%rip), %rax
	movq	%rax, %rdi
	call	_ZSt20__throw_length_errorPKc@PLT
.L219:
	movq	-40(%rbp), %rax
	movq	-24(%rbp), %rdx
	subq	%fs:40, %rdx
	je	.L221
	call	__stack_chk_fail@PLT
.L221:
	movq	-8(%rbp), %rbx
	leave
	.cfi_def_cfa 7, 8
	ret
	.cfi_endproc
.LFE5881:
	.size	_ZNSt6vectorINSt7__cxx1112basic_stringIcSt11char_traitsIcESaIcEEESaIS5_EE17_S_check_init_lenEmRKS6_, .-_ZNSt6vectorINSt7__cxx1112basic_stringIcSt11char_traitsIcESaIcEEESaIS5_EE17_S_check_init_lenEmRKS6_
	.section	.text._ZNSt6vectorINSt7__cxx1112basic_stringIcSt11char_traitsIcESaIcEEESaIS5_EE20_M_allocate_and_copyIPKS5_EEPS5_mT_SC_,"axG",@progbits,_ZNSt6vectorINSt7__cxx1112basic_stringIcSt11char_traitsIcESaIcEEESaIS5_EE20_M_allocate_and_copyIPKS5_EEPS5_mT_SC_,comdat
	.align 2
	.weak	_ZNSt6vectorINSt7__cxx1112basic_stringIcSt11char_traitsIcESaIcEEESaIS5_EE20_M_allocate_and_copyIPKS5_EEPS5_mT_SC_
	.type	_ZNSt6vectorINSt7__cxx1112basic_stringIcSt11char_traitsIcESaIcEEESaIS5_EE20_M_allocate_and_copyIPKS5_EEPS5_mT_SC_, @function
_ZNSt6vectorINSt7__cxx1112basic_stringIcSt11char_traitsIcESaIcEEESaIS5_EE20_M_allocate_and_copyIPKS5_EEPS5_mT_SC_:
.LFB5882:
	.cfi_startproc
	.cfi_personality 0x9b,DW.ref.__gxx_personality_v0
	.cfi_lsda 0x1b,.LLSDA5882
	endbr64
	pushq	%rbp
	.cfi_def_cfa_offset 16
	.cfi_offset 6, -16
	movq	%rsp, %rbp
	.cfi_def_cfa_register 6
	pushq	%rbx
	subq	$56, %rsp
	.cfi_offset 3, -24
	movq	%rdi, -40(%rbp)
	movq	%rsi, -48(%rbp)
	movq	%rdx, -56(%rbp)
	movq	%rcx, -64(%rbp)
	movq	-40(%rbp), %rax
	movq	-48(%rbp), %rdx
	movq	%rdx, %rsi
	movq	%rax, %rdi
.LEHB44:
	call	_ZNSt12_Vector_baseINSt7__cxx1112basic_stringIcSt11char_traitsIcESaIcEEESaIS5_EE11_M_allocateEm
.LEHE44:
	movq	%rax, -24(%rbp)
	movq	-40(%rbp), %rax
	movq	%rax, %rdi
	call	_ZNSt12_Vector_baseINSt7__cxx1112basic_stringIcSt11char_traitsIcESaIcEEESaIS5_EE19_M_get_Tp_allocatorEv
	movq	%rax, %rcx
	movq	-24(%rbp), %rdx
	movq	-64(%rbp), %rsi
	movq	-56(%rbp), %rax
	movq	%rax, %rdi
.LEHB45:
	call	_ZSt22__uninitialized_copy_aIPKNSt7__cxx1112basic_stringIcSt11char_traitsIcESaIcEEEPS5_S5_ET0_T_SA_S9_RSaIT1_E
.LEHE45:
	movq	-24(%rbp), %rax
	jmp	.L228
.L226:
	endbr64
	movq	%rax, %rdi
	call	__cxa_begin_catch@PLT
	movq	-40(%rbp), %rax
	movq	-48(%rbp), %rdx
	movq	-24(%rbp), %rcx
	movq	%rcx, %rsi
	movq	%rax, %rdi
.LEHB46:
	call	_ZNSt12_Vector_baseINSt7__cxx1112basic_stringIcSt11char_traitsIcESaIcEEESaIS5_EE13_M_deallocateEPS5_m
	call	__cxa_rethrow@PLT
.LEHE46:
.L227:
	endbr64
	movq	%rax, %rbx
	call	__cxa_end_catch@PLT
	movq	%rbx, %rax
	movq	%rax, %rdi
.LEHB47:
	call	_Unwind_Resume@PLT
.LEHE47:
.L228:
	movq	-8(%rbp), %rbx
	leave
	.cfi_def_cfa 7, 8
	ret
	.cfi_endproc
.LFE5882:
	.section	.gcc_except_table
	.align 4
.LLSDA5882:
	.byte	0xff
	.byte	0x9b
	.uleb128 .LLSDATT5882-.LLSDATTD5882
.LLSDATTD5882:
	.byte	0x1
	.uleb128 .LLSDACSE5882-.LLSDACSB5882
.LLSDACSB5882:
	.uleb128 .LEHB44-.LFB5882
	.uleb128 .LEHE44-.LEHB44
	.uleb128 0
	.uleb128 0
	.uleb128 .LEHB45-.LFB5882
	.uleb128 .LEHE45-.LEHB45
	.uleb128 .L226-.LFB5882
	.uleb128 0x1
	.uleb128 .LEHB46-.LFB5882
	.uleb128 .LEHE46-.LEHB46
	.uleb128 .L227-.LFB5882
	.uleb128 0
	.uleb128 .LEHB47-.LFB5882
	.uleb128 .LEHE47-.LEHB47
	.uleb128 0
	.uleb128 0
.LLSDACSE5882:
	.byte	0x1
	.byte	0
	.align 4
	.long	0

.LLSDATT5882:
	.section	.text._ZNSt6vectorINSt7__cxx1112basic_stringIcSt11char_traitsIcESaIcEEESaIS5_EE20_M_allocate_and_copyIPKS5_EEPS5_mT_SC_,"axG",@progbits,_ZNSt6vectorINSt7__cxx1112basic_stringIcSt11char_traitsIcESaIcEEESaIS5_EE20_M_allocate_and_copyIPKS5_EEPS5_mT_SC_,comdat
	.size	_ZNSt6vectorINSt7__cxx1112basic_stringIcSt11char_traitsIcESaIcEEESaIS5_EE20_M_allocate_and_copyIPKS5_EEPS5_mT_SC_, .-_ZNSt6vectorINSt7__cxx1112basic_stringIcSt11char_traitsIcESaIcEEESaIS5_EE20_M_allocate_and_copyIPKS5_EEPS5_mT_SC_
	.section	.text._ZNSt6vectorINSt7__cxx1112basic_stringIcSt11char_traitsIcESaIcEEESaIS5_EE15_M_erase_at_endEPS5_,"axG",@progbits,_ZNSt6vectorINSt7__cxx1112basic_stringIcSt11char_traitsIcESaIcEEESaIS5_EE15_M_erase_at_endEPS5_,comdat
	.align 2
	.weak	_ZNSt6vectorINSt7__cxx1112basic_stringIcSt11char_traitsIcESaIcEEESaIS5_EE15_M_erase_at_endEPS5_
	.type	_ZNSt6vectorINSt7__cxx1112basic_stringIcSt11char_traitsIcESaIcEEESaIS5_EE15_M_erase_at_endEPS5_, @function
_ZNSt6vectorINSt7__cxx1112basic_stringIcSt11char_traitsIcESaIcEEESaIS5_EE15_M_erase_at_endEPS5_:
.LFB5883:
	.cfi_startproc
	.cfi_personality 0x9b,DW.ref.__gxx_personality_v0
	.cfi_lsda 0x1b,.LLSDA5883
	endbr64
	pushq	%rbp
	.cfi_def_cfa_offset 16
	.cfi_offset 6, -16
	movq	%rsp, %rbp
	.cfi_def_cfa_register 6
	subq	$32, %rsp
	movq	%rdi, -24(%rbp)
	movq	%rsi, -32(%rbp)
	movq	-24(%rbp), %rax
	movq	8(%rax), %rax
	subq	-32(%rbp), %rax
	sarq	$5, %rax
	movq	%rax, -8(%rbp)
	cmpq	$0, -8(%rbp)
	je	.L231
	movq	-24(%rbp), %rax
	movq	%rax, %rdi
	call	_ZNSt12_Vector_baseINSt7__cxx1112basic_stringIcSt11char_traitsIcESaIcEEESaIS5_EE19_M_get_Tp_allocatorEv
	movq	%rax, %rdx
	movq	-24(%rbp), %rax
	movq	8(%rax), %rcx
	movq	-32(%rbp), %rax
	movq	%rcx, %rsi
	movq	%rax, %rdi
	call	_ZSt8_DestroyIPNSt7__cxx1112basic_stringIcSt11char_traitsIcESaIcEEES5_EvT_S7_RSaIT0_E
	movq	-24(%rbp), %rax
	movq	-32(%rbp), %rdx
	movq	%rdx, 8(%rax)
.L231:
	nop
	leave
	.cfi_def_cfa 7, 8
	ret
	.cfi_endproc
.LFE5883:
	.section	.gcc_except_table
.LLSDA5883:
	.byte	0xff
	.byte	0xff
	.byte	0x1
	.uleb128 .LLSDACSE5883-.LLSDACSB5883
.LLSDACSB5883:
.LLSDACSE5883:
	.section	.text._ZNSt6vectorINSt7__cxx1112basic_stringIcSt11char_traitsIcESaIcEEESaIS5_EE15_M_erase_at_endEPS5_,"axG",@progbits,_ZNSt6vectorINSt7__cxx1112basic_stringIcSt11char_traitsIcESaIcEEESaIS5_EE15_M_erase_at_endEPS5_,comdat
	.size	_ZNSt6vectorINSt7__cxx1112basic_stringIcSt11char_traitsIcESaIcEEESaIS5_EE15_M_erase_at_endEPS5_, .-_ZNSt6vectorINSt7__cxx1112basic_stringIcSt11char_traitsIcESaIcEEESaIS5_EE15_M_erase_at_endEPS5_
	.section	.text._ZSt4copyIPKNSt7__cxx1112basic_stringIcSt11char_traitsIcESaIcEEEPS5_ET0_T_SA_S9_,"axG",@progbits,_ZSt4copyIPKNSt7__cxx1112basic_stringIcSt11char_traitsIcESaIcEEEPS5_ET0_T_SA_S9_,comdat
	.weak	_ZSt4copyIPKNSt7__cxx1112basic_stringIcSt11char_traitsIcESaIcEEEPS5_ET0_T_SA_S9_
	.type	_ZSt4copyIPKNSt7__cxx1112basic_stringIcSt11char_traitsIcESaIcEEEPS5_ET0_T_SA_S9_, @function
_ZSt4copyIPKNSt7__cxx1112basic_stringIcSt11char_traitsIcESaIcEEEPS5_ET0_T_SA_S9_:
.LFB5884:
	.cfi_startproc
	endbr64
	pushq	%rbp
	.cfi_def_cfa_offset 16
	.cfi_offset 6, -16
	movq	%rsp, %rbp
	.cfi_def_cfa_register 6
	pushq	%rbx
	subq	$40, %rsp
	.cfi_offset 3, -24
	movq	%rdi, -24(%rbp)
	movq	%rsi, -32(%rbp)
	movq	%rdx, -40(%rbp)
	movq	-32(%rbp), %rax
	movq	%rax, %rdi
	call	_ZSt12__miter_baseIPKNSt7__cxx1112basic_stringIcSt11char_traitsIcESaIcEEEET_S8_
	movq	%rax, %rbx
	movq	-24(%rbp), %rax
	movq	%rax, %rdi
	call	_ZSt12__miter_baseIPKNSt7__cxx1112basic_stringIcSt11char_traitsIcESaIcEEEET_S8_
	movq	%rax, %rcx
	movq	-40(%rbp), %rax
	movq	%rax, %rdx
	movq	%rbx, %rsi
	movq	%rcx, %rdi
	call	_ZSt13__copy_move_aILb0EPKNSt7__cxx1112basic_stringIcSt11char_traitsIcESaIcEEEPS5_ET1_T0_SA_S9_
	movq	-8(%rbp), %rbx
	leave
	.cfi_def_cfa 7, 8
	ret
	.cfi_endproc
.LFE5884:
	.size	_ZSt4copyIPKNSt7__cxx1112basic_stringIcSt11char_traitsIcESaIcEEEPS5_ET0_T_SA_S9_, .-_ZSt4copyIPKNSt7__cxx1112basic_stringIcSt11char_traitsIcESaIcEEEPS5_ET0_T_SA_S9_
	.section	.text._ZSt7advanceIPKNSt7__cxx1112basic_stringIcSt11char_traitsIcESaIcEEEmEvRT_T0_,"axG",@progbits,_ZSt7advanceIPKNSt7__cxx1112basic_stringIcSt11char_traitsIcESaIcEEEmEvRT_T0_,comdat
	.weak	_ZSt7advanceIPKNSt7__cxx1112basic_stringIcSt11char_traitsIcESaIcEEEmEvRT_T0_
	.type	_ZSt7advanceIPKNSt7__cxx1112basic_stringIcSt11char_traitsIcESaIcEEEmEvRT_T0_, @function
_ZSt7advanceIPKNSt7__cxx1112basic_stringIcSt11char_traitsIcESaIcEEEmEvRT_T0_:
.LFB5885:
	.cfi_startproc
	endbr64
	pushq	%rbp
	.cfi_def_cfa_offset 16
	.cfi_offset 6, -16
	movq	%rsp, %rbp
	.cfi_def_cfa_register 6
	subq	$32, %rsp
	movq	%rdi, -24(%rbp)
	movq	%rsi, -32(%rbp)
	movq	-32(%rbp), %rax
	movq	%rax, -8(%rbp)
	movq	-24(%rbp), %rax
	movq	%rax, %rdi
	call	_ZSt19__iterator_categoryIPKNSt7__cxx1112basic_stringIcSt11char_traitsIcESaIcEEEENSt15iterator_traitsIT_E17iterator_categoryERKS9_
	movq	-8(%rbp), %rdx
	movq	-24(%rbp), %rax
	movq	%rdx, %rsi
	movq	%rax, %rdi
	call	_ZSt9__advanceIPKNSt7__cxx1112basic_stringIcSt11char_traitsIcESaIcEEElEvRT_T0_St26random_access_iterator_tag
	nop
	leave
	.cfi_def_cfa 7, 8
	ret
	.cfi_endproc
.LFE5885:
	.size	_ZSt7advanceIPKNSt7__cxx1112basic_stringIcSt11char_traitsIcESaIcEEEmEvRT_T0_, .-_ZSt7advanceIPKNSt7__cxx1112basic_stringIcSt11char_traitsIcESaIcEEEmEvRT_T0_
	.section	.text._ZSt22__uninitialized_copy_aIPKNSt7__cxx1112basic_stringIcSt11char_traitsIcESaIcEEEPS5_S5_ET0_T_SA_S9_RSaIT1_E,"axG",@progbits,_ZSt22__uninitialized_copy_aIPKNSt7__cxx1112basic_stringIcSt11char_traitsIcESaIcEEEPS5_S5_ET0_T_SA_S9_RSaIT1_E,comdat
	.weak	_ZSt22__uninitialized_copy_aIPKNSt7__cxx1112basic_stringIcSt11char_traitsIcESaIcEEEPS5_S5_ET0_T_SA_S9_RSaIT1_E
	.type	_ZSt22__uninitialized_copy_aIPKNSt7__cxx1112basic_stringIcSt11char_traitsIcESaIcEEEPS5_S5_ET0_T_SA_S9_RSaIT1_E, @function
_ZSt22__uninitialized_copy_aIPKNSt7__cxx1112basic_stringIcSt11char_traitsIcESaIcEEEPS5_S5_ET0_T_SA_S9_RSaIT1_E:
.LFB5886:
	.cfi_startproc
	endbr64
	pushq	%rbp
	.cfi_def_cfa_offset 16
	.cfi_offset 6, -16
	movq	%rsp, %rbp
	.cfi_def_cfa_register 6
	subq	$32, %rsp
	movq	%rdi, -8(%rbp)
	movq	%rsi, -16(%rbp)
	movq	%rdx, -24(%rbp)
	movq	%rcx, -32(%rbp)
	movq	-24(%rbp), %rdx
	movq	-16(%rbp), %rcx
	movq	-8(%rbp), %rax
	movq	%rcx, %rsi
	movq	%rax, %rdi
	call	_ZSt18uninitialized_copyIPKNSt7__cxx1112basic_stringIcSt11char_traitsIcESaIcEEEPS5_ET0_T_SA_S9_
	leave
	.cfi_def_cfa 7, 8
	ret
	.cfi_endproc
.LFE5886:
	.size	_ZSt22__uninitialized_copy_aIPKNSt7__cxx1112basic_stringIcSt11char_traitsIcESaIcEEEPS5_S5_ET0_T_SA_S9_RSaIT1_E, .-_ZSt22__uninitialized_copy_aIPKNSt7__cxx1112basic_stringIcSt11char_traitsIcESaIcEEEPS5_S5_ET0_T_SA_S9_RSaIT1_E
	.section	.text._ZSt3getILm0EJP15TrafficLightImpSt14default_deleteIS0_EEERNSt13tuple_elementIXT_ESt5tupleIJDpT0_EEE4typeERS8_,"axG",@progbits,_ZSt3getILm0EJP15TrafficLightImpSt14default_deleteIS0_EEERNSt13tuple_elementIXT_ESt5tupleIJDpT0_EEE4typeERS8_,comdat
	.weak	_ZSt3getILm0EJP15TrafficLightImpSt14default_deleteIS0_EEERNSt13tuple_elementIXT_ESt5tupleIJDpT0_EEE4typeERS8_
	.type	_ZSt3getILm0EJP15TrafficLightImpSt14default_deleteIS0_EEERNSt13tuple_elementIXT_ESt5tupleIJDpT0_EEE4typeERS8_, @function
_ZSt3getILm0EJP15TrafficLightImpSt14default_deleteIS0_EEERNSt13tuple_elementIXT_ESt5tupleIJDpT0_EEE4typeERS8_:
.LFB5891:
	.cfi_startproc
	endbr64
	pushq	%rbp
	.cfi_def_cfa_offset 16
	.cfi_offset 6, -16
	movq	%rsp, %rbp
	.cfi_def_cfa_register 6
	subq	$16, %rsp
	movq	%rdi, -8(%rbp)
	movq	-8(%rbp), %rax
	movq	%rax, %rdi
	call	_ZSt12__get_helperILm0EP15TrafficLightImpJSt14default_deleteIS0_EEERT0_RSt11_Tuple_implIXT_EJS4_DpT1_EE
	leave
	.cfi_def_cfa 7, 8
	ret
	.cfi_endproc
.LFE5891:
	.size	_ZSt3getILm0EJP15TrafficLightImpSt14default_deleteIS0_EEERNSt13tuple_elementIXT_ESt5tupleIJDpT0_EEE4typeERS8_, .-_ZSt3getILm0EJP15TrafficLightImpSt14default_deleteIS0_EEERNSt13tuple_elementIXT_ESt5tupleIJDpT0_EEE4typeERS8_
	.section	.text._ZNSt15__uniq_ptr_implI15TrafficLightImpSt14default_deleteIS0_EE10_M_deleterEv,"axG",@progbits,_ZNSt15__uniq_ptr_implI15TrafficLightImpSt14default_deleteIS0_EE10_M_deleterEv,comdat
	.align 2
	.weak	_ZNSt15__uniq_ptr_implI15TrafficLightImpSt14default_deleteIS0_EE10_M_deleterEv
	.type	_ZNSt15__uniq_ptr_implI15TrafficLightImpSt14default_deleteIS0_EE10_M_deleterEv, @function
_ZNSt15__uniq_ptr_implI15TrafficLightImpSt14default_deleteIS0_EE10_M_deleterEv:
.LFB5892:
	.cfi_startproc
	endbr64
	pushq	%rbp
	.cfi_def_cfa_offset 16
	.cfi_offset 6, -16
	movq	%rsp, %rbp
	.cfi_def_cfa_register 6
	subq	$16, %rsp
	movq	%rdi, -8(%rbp)
	movq	-8(%rbp), %rax
	movq	%rax, %rdi
	call	_ZSt3getILm1EJP15TrafficLightImpSt14default_deleteIS0_EEERNSt13tuple_elementIXT_ESt5tupleIJDpT0_EEE4typeERS8_
	leave
	.cfi_def_cfa 7, 8
	ret
	.cfi_endproc
.LFE5892:
	.size	_ZNSt15__uniq_ptr_implI15TrafficLightImpSt14default_deleteIS0_EE10_M_deleterEv, .-_ZNSt15__uniq_ptr_implI15TrafficLightImpSt14default_deleteIS0_EE10_M_deleterEv
	.section	.text._ZN9__gnu_cxx13new_allocatorINSt7__cxx1112basic_stringIcSt11char_traitsIcESaIcEEEE10deallocateEPS6_m,"axG",@progbits,_ZN9__gnu_cxx13new_allocatorINSt7__cxx1112basic_stringIcSt11char_traitsIcESaIcEEEE10deallocateEPS6_m,comdat
	.align 2
	.weak	_ZN9__gnu_cxx13new_allocatorINSt7__cxx1112basic_stringIcSt11char_traitsIcESaIcEEEE10deallocateEPS6_m
	.type	_ZN9__gnu_cxx13new_allocatorINSt7__cxx1112basic_stringIcSt11char_traitsIcESaIcEEEE10deallocateEPS6_m, @function
_ZN9__gnu_cxx13new_allocatorINSt7__cxx1112basic_stringIcSt11char_traitsIcESaIcEEEE10deallocateEPS6_m:
.LFB5975:
	.cfi_startproc
	endbr64
	pushq	%rbp
	.cfi_def_cfa_offset 16
	.cfi_offset 6, -16
	movq	%rsp, %rbp
	.cfi_def_cfa_register 6
	subq	$32, %rsp
	movq	%rdi, -8(%rbp)
	movq	%rsi, -16(%rbp)
	movq	%rdx, -24(%rbp)
	movq	-24(%rbp), %rax
	salq	$5, %rax
	movq	%rax, %rdx
	movq	-16(%rbp), %rax
	movq	%rdx, %rsi
	movq	%rax, %rdi
	call	_ZdlPvm@PLT
	leave
	.cfi_def_cfa 7, 8
	ret
	.cfi_endproc
.LFE5975:
	.size	_ZN9__gnu_cxx13new_allocatorINSt7__cxx1112basic_stringIcSt11char_traitsIcESaIcEEEE10deallocateEPS6_m, .-_ZN9__gnu_cxx13new_allocatorINSt7__cxx1112basic_stringIcSt11char_traitsIcESaIcEEEE10deallocateEPS6_m
	.section	.text._ZNSt12_Destroy_auxILb0EE9__destroyIPNSt7__cxx1112basic_stringIcSt11char_traitsIcESaIcEEEEEvT_S9_,"axG",@progbits,_ZNSt12_Destroy_auxILb0EE9__destroyIPNSt7__cxx1112basic_stringIcSt11char_traitsIcESaIcEEEEEvT_S9_,comdat
	.weak	_ZNSt12_Destroy_auxILb0EE9__destroyIPNSt7__cxx1112basic_stringIcSt11char_traitsIcESaIcEEEEEvT_S9_
	.type	_ZNSt12_Destroy_auxILb0EE9__destroyIPNSt7__cxx1112basic_stringIcSt11char_traitsIcESaIcEEEEEvT_S9_, @function
_ZNSt12_Destroy_auxILb0EE9__destroyIPNSt7__cxx1112basic_stringIcSt11char_traitsIcESaIcEEEEEvT_S9_:
.LFB5976:
	.cfi_startproc
	endbr64
	pushq	%rbp
	.cfi_def_cfa_offset 16
	.cfi_offset 6, -16
	movq	%rsp, %rbp
	.cfi_def_cfa_register 6
	subq	$16, %rsp
	movq	%rdi, -8(%rbp)
	movq	%rsi, -16(%rbp)
	jmp	.L244
.L245:
	movq	-8(%rbp), %rax
	movq	%rax, %rdi
	call	_ZSt11__addressofINSt7__cxx1112basic_stringIcSt11char_traitsIcESaIcEEEEPT_RS6_
	movq	%rax, %rdi
	call	_ZSt8_DestroyINSt7__cxx1112basic_stringIcSt11char_traitsIcESaIcEEEEvPT_
	addq	$32, -8(%rbp)
.L244:
	movq	-8(%rbp), %rax
	cmpq	-16(%rbp), %rax
	jne	.L245
	nop
	nop
	leave
	.cfi_def_cfa 7, 8
	ret
	.cfi_endproc
.LFE5976:
	.size	_ZNSt12_Destroy_auxILb0EE9__destroyIPNSt7__cxx1112basic_stringIcSt11char_traitsIcESaIcEEEEEvT_S9_, .-_ZNSt12_Destroy_auxILb0EE9__destroyIPNSt7__cxx1112basic_stringIcSt11char_traitsIcESaIcEEEEEvT_S9_
	.section	.text._ZNSaINSt7__cxx1112basic_stringIcSt11char_traitsIcESaIcEEEEC2ERKS5_,"axG",@progbits,_ZNSaINSt7__cxx1112basic_stringIcSt11char_traitsIcESaIcEEEEC5ERKS5_,comdat
	.align 2
	.weak	_ZNSaINSt7__cxx1112basic_stringIcSt11char_traitsIcESaIcEEEEC2ERKS5_
	.type	_ZNSaINSt7__cxx1112basic_stringIcSt11char_traitsIcESaIcEEEEC2ERKS5_, @function
_ZNSaINSt7__cxx1112basic_stringIcSt11char_traitsIcESaIcEEEEC2ERKS5_:
.LFB5978:
	.cfi_startproc
	endbr64
	pushq	%rbp
	.cfi_def_cfa_offset 16
	.cfi_offset 6, -16
	movq	%rsp, %rbp
	.cfi_def_cfa_register 6
	subq	$16, %rsp
	movq	%rdi, -8(%rbp)
	movq	%rsi, -16(%rbp)
	movq	-16(%rbp), %rdx
	movq	-8(%rbp), %rax
	movq	%rdx, %rsi
	movq	%rax, %rdi
	call	_ZN9__gnu_cxx13new_allocatorINSt7__cxx1112basic_stringIcSt11char_traitsIcESaIcEEEEC2ERKS7_
	nop
	leave
	.cfi_def_cfa 7, 8
	ret
	.cfi_endproc
.LFE5978:
	.size	_ZNSaINSt7__cxx1112basic_stringIcSt11char_traitsIcESaIcEEEEC2ERKS5_, .-_ZNSaINSt7__cxx1112basic_stringIcSt11char_traitsIcESaIcEEEEC2ERKS5_
	.weak	_ZNSaINSt7__cxx1112basic_stringIcSt11char_traitsIcESaIcEEEEC1ERKS5_
	.set	_ZNSaINSt7__cxx1112basic_stringIcSt11char_traitsIcESaIcEEEEC1ERKS5_,_ZNSaINSt7__cxx1112basic_stringIcSt11char_traitsIcESaIcEEEEC2ERKS5_
	.section	.text._ZNSt12_Vector_baseINSt7__cxx1112basic_stringIcSt11char_traitsIcESaIcEEESaIS5_EE11_M_allocateEm,"axG",@progbits,_ZNSt12_Vector_baseINSt7__cxx1112basic_stringIcSt11char_traitsIcESaIcEEESaIS5_EE11_M_allocateEm,comdat
	.align 2
	.weak	_ZNSt12_Vector_baseINSt7__cxx1112basic_stringIcSt11char_traitsIcESaIcEEESaIS5_EE11_M_allocateEm
	.type	_ZNSt12_Vector_baseINSt7__cxx1112basic_stringIcSt11char_traitsIcESaIcEEESaIS5_EE11_M_allocateEm, @function
_ZNSt12_Vector_baseINSt7__cxx1112basic_stringIcSt11char_traitsIcESaIcEEESaIS5_EE11_M_allocateEm:
.LFB5980:
	.cfi_startproc
	endbr64
	pushq	%rbp
	.cfi_def_cfa_offset 16
	.cfi_offset 6, -16
	movq	%rsp, %rbp
	.cfi_def_cfa_register 6
	subq	$16, %rsp
	movq	%rdi, -8(%rbp)
	movq	%rsi, -16(%rbp)
	cmpq	$0, -16(%rbp)
	je	.L248
	movq	-8(%rbp), %rax
	movq	-16(%rbp), %rdx
	movq	%rdx, %rsi
	movq	%rax, %rdi
	call	_ZNSt16allocator_traitsISaINSt7__cxx1112basic_stringIcSt11char_traitsIcESaIcEEEEE8allocateERS6_m
	jmp	.L250
.L248:
	movl	$0, %eax
.L250:
	leave
	.cfi_def_cfa 7, 8
	ret
	.cfi_endproc
.LFE5980:
	.size	_ZNSt12_Vector_baseINSt7__cxx1112basic_stringIcSt11char_traitsIcESaIcEEESaIS5_EE11_M_allocateEm, .-_ZNSt12_Vector_baseINSt7__cxx1112basic_stringIcSt11char_traitsIcESaIcEEESaIS5_EE11_M_allocateEm
	.section	.text._ZN9__gnu_cxx13new_allocatorISt10unique_ptrI15TrafficLightImpSt14default_deleteIS2_EEE10deallocateEPS5_m,"axG",@progbits,_ZN9__gnu_cxx13new_allocatorISt10unique_ptrI15TrafficLightImpSt14default_deleteIS2_EEE10deallocateEPS5_m,comdat
	.align 2
	.weak	_ZN9__gnu_cxx13new_allocatorISt10unique_ptrI15TrafficLightImpSt14default_deleteIS2_EEE10deallocateEPS5_m
	.type	_ZN9__gnu_cxx13new_allocatorISt10unique_ptrI15TrafficLightImpSt14default_deleteIS2_EEE10deallocateEPS5_m, @function
_ZN9__gnu_cxx13new_allocatorISt10unique_ptrI15TrafficLightImpSt14default_deleteIS2_EEE10deallocateEPS5_m:
.LFB6056:
	.cfi_startproc
	endbr64
	pushq	%rbp
	.cfi_def_cfa_offset 16
	.cfi_offset 6, -16
	movq	%rsp, %rbp
	.cfi_def_cfa_register 6
	subq	$32, %rsp
	movq	%rdi, -8(%rbp)
	movq	%rsi, -16(%rbp)
	movq	%rdx, -24(%rbp)
	movq	-24(%rbp), %rax
	leaq	0(,%rax,8), %rdx
	movq	-16(%rbp), %rax
	movq	%rdx, %rsi
	movq	%rax, %rdi
	call	_ZdlPvm@PLT
	leave
	.cfi_def_cfa 7, 8
	ret
	.cfi_endproc
.LFE6056:
	.size	_ZN9__gnu_cxx13new_allocatorISt10unique_ptrI15TrafficLightImpSt14default_deleteIS2_EEE10deallocateEPS5_m, .-_ZN9__gnu_cxx13new_allocatorISt10unique_ptrI15TrafficLightImpSt14default_deleteIS2_EEE10deallocateEPS5_m
	.section	.text._ZNSt12_Destroy_auxILb0EE9__destroyIPSt10unique_ptrI15TrafficLightImpSt14default_deleteIS3_EEEEvT_S8_,"axG",@progbits,_ZNSt12_Destroy_auxILb0EE9__destroyIPSt10unique_ptrI15TrafficLightImpSt14default_deleteIS3_EEEEvT_S8_,comdat
	.weak	_ZNSt12_Destroy_auxILb0EE9__destroyIPSt10unique_ptrI15TrafficLightImpSt14default_deleteIS3_EEEEvT_S8_
	.type	_ZNSt12_Destroy_auxILb0EE9__destroyIPSt10unique_ptrI15TrafficLightImpSt14default_deleteIS3_EEEEvT_S8_, @function
_ZNSt12_Destroy_auxILb0EE9__destroyIPSt10unique_ptrI15TrafficLightImpSt14default_deleteIS3_EEEEvT_S8_:
.LFB6057:
	.cfi_startproc
	endbr64
	pushq	%rbp
	.cfi_def_cfa_offset 16
	.cfi_offset 6, -16
	movq	%rsp, %rbp
	.cfi_def_cfa_register 6
	subq	$16, %rsp
	movq	%rdi, -8(%rbp)
	movq	%rsi, -16(%rbp)
	jmp	.L254
.L255:
	movq	-8(%rbp), %rax
	movq	%rax, %rdi
	call	_ZSt11__addressofISt10unique_ptrI15TrafficLightImpSt14default_deleteIS1_EEEPT_RS5_
	movq	%rax, %rdi
	call	_ZSt8_DestroyISt10unique_ptrI15TrafficLightImpSt14default_deleteIS1_EEEvPT_
	addq	$8, -8(%rbp)
.L254:
	movq	-8(%rbp), %rax
	cmpq	-16(%rbp), %rax
	jne	.L255
	nop
	nop
	leave
	.cfi_def_cfa 7, 8
	ret
	.cfi_endproc
.LFE6057:
	.size	_ZNSt12_Destroy_auxILb0EE9__destroyIPSt10unique_ptrI15TrafficLightImpSt14default_deleteIS3_EEEEvT_S8_, .-_ZNSt12_Destroy_auxILb0EE9__destroyIPSt10unique_ptrI15TrafficLightImpSt14default_deleteIS3_EEEEvT_S8_
	.section	.text._ZNSt6vectorINSt7__cxx1112basic_stringIcSt11char_traitsIcESaIcEEESaIS5_EE11_S_max_sizeERKS6_,"axG",@progbits,_ZNSt6vectorINSt7__cxx1112basic_stringIcSt11char_traitsIcESaIcEEESaIS5_EE11_S_max_sizeERKS6_,comdat
	.weak	_ZNSt6vectorINSt7__cxx1112basic_stringIcSt11char_traitsIcESaIcEEESaIS5_EE11_S_max_sizeERKS6_
	.type	_ZNSt6vectorINSt7__cxx1112basic_stringIcSt11char_traitsIcESaIcEEESaIS5_EE11_S_max_sizeERKS6_, @function
_ZNSt6vectorINSt7__cxx1112basic_stringIcSt11char_traitsIcESaIcEEESaIS5_EE11_S_max_sizeERKS6_:
.LFB6058:
	.cfi_startproc
	endbr64
	pushq	%rbp
	.cfi_def_cfa_offset 16
	.cfi_offset 6, -16
	movq	%rsp, %rbp
	.cfi_def_cfa_register 6
	subq	$48, %rsp
	movq	%rdi, -40(%rbp)
	movq	%fs:40, %rax
	movq	%rax, -8(%rbp)
	xorl	%eax, %eax
	movabsq	$288230376151711743, %rax
	movq	%rax, -24(%rbp)
	movq	-40(%rbp), %rax
	movq	%rax, %rdi
	call	_ZNSt16allocator_traitsISaINSt7__cxx1112basic_stringIcSt11char_traitsIcESaIcEEEEE8max_sizeERKS6_
	movq	%rax, -16(%rbp)
	leaq	-16(%rbp), %rdx
	leaq	-24(%rbp), %rax
	movq	%rdx, %rsi
	movq	%rax, %rdi
	call	_ZSt3minImERKT_S2_S2_
	movq	(%rax), %rax
	movq	-8(%rbp), %rdx
	subq	%fs:40, %rdx
	je	.L258
	call	__stack_chk_fail@PLT
.L258:
	leave
	.cfi_def_cfa 7, 8
	ret
	.cfi_endproc
.LFE6058:
	.size	_ZNSt6vectorINSt7__cxx1112basic_stringIcSt11char_traitsIcESaIcEEESaIS5_EE11_S_max_sizeERKS6_, .-_ZNSt6vectorINSt7__cxx1112basic_stringIcSt11char_traitsIcESaIcEEESaIS5_EE11_S_max_sizeERKS6_
	.section	.text._ZSt12__miter_baseIPKNSt7__cxx1112basic_stringIcSt11char_traitsIcESaIcEEEET_S8_,"axG",@progbits,_ZSt12__miter_baseIPKNSt7__cxx1112basic_stringIcSt11char_traitsIcESaIcEEEET_S8_,comdat
	.weak	_ZSt12__miter_baseIPKNSt7__cxx1112basic_stringIcSt11char_traitsIcESaIcEEEET_S8_
	.type	_ZSt12__miter_baseIPKNSt7__cxx1112basic_stringIcSt11char_traitsIcESaIcEEEET_S8_, @function
_ZSt12__miter_baseIPKNSt7__cxx1112basic_stringIcSt11char_traitsIcESaIcEEEET_S8_:
.LFB6059:
	.cfi_startproc
	endbr64
	pushq	%rbp
	.cfi_def_cfa_offset 16
	.cfi_offset 6, -16
	movq	%rsp, %rbp
	.cfi_def_cfa_register 6
	movq	%rdi, -8(%rbp)
	movq	-8(%rbp), %rax
	popq	%rbp
	.cfi_def_cfa 7, 8
	ret
	.cfi_endproc
.LFE6059:
	.size	_ZSt12__miter_baseIPKNSt7__cxx1112basic_stringIcSt11char_traitsIcESaIcEEEET_S8_, .-_ZSt12__miter_baseIPKNSt7__cxx1112basic_stringIcSt11char_traitsIcESaIcEEEET_S8_
	.section	.text._ZSt13__copy_move_aILb0EPKNSt7__cxx1112basic_stringIcSt11char_traitsIcESaIcEEEPS5_ET1_T0_SA_S9_,"axG",@progbits,_ZSt13__copy_move_aILb0EPKNSt7__cxx1112basic_stringIcSt11char_traitsIcESaIcEEEPS5_ET1_T0_SA_S9_,comdat
	.weak	_ZSt13__copy_move_aILb0EPKNSt7__cxx1112basic_stringIcSt11char_traitsIcESaIcEEEPS5_ET1_T0_SA_S9_
	.type	_ZSt13__copy_move_aILb0EPKNSt7__cxx1112basic_stringIcSt11char_traitsIcESaIcEEEPS5_ET1_T0_SA_S9_, @function
_ZSt13__copy_move_aILb0EPKNSt7__cxx1112basic_stringIcSt11char_traitsIcESaIcEEEPS5_ET1_T0_SA_S9_:
.LFB6060:
	.cfi_startproc
	endbr64
	pushq	%rbp
	.cfi_def_cfa_offset 16
	.cfi_offset 6, -16
	movq	%rsp, %rbp
	.cfi_def_cfa_register 6
	pushq	%r12
	pushq	%rbx
	subq	$32, %rsp
	.cfi_offset 12, -24
	.cfi_offset 3, -32
	movq	%rdi, -24(%rbp)
	movq	%rsi, -32(%rbp)
	movq	%rdx, -40(%rbp)
	movq	-40(%rbp), %rax
	movq	%rax, %rdi
	call	_ZSt12__niter_baseIPNSt7__cxx1112basic_stringIcSt11char_traitsIcESaIcEEEET_S7_
	movq	%rax, %r12
	movq	-32(%rbp), %rax
	movq	%rax, %rdi
	call	_ZSt12__niter_baseIPKNSt7__cxx1112basic_stringIcSt11char_traitsIcESaIcEEEET_S8_
	movq	%rax, %rbx
	movq	-24(%rbp), %rax
	movq	%rax, %rdi
	call	_ZSt12__niter_baseIPKNSt7__cxx1112basic_stringIcSt11char_traitsIcESaIcEEEET_S8_
	movq	%r12, %rdx
	movq	%rbx, %rsi
	movq	%rax, %rdi
	call	_ZSt14__copy_move_a1ILb0EPKNSt7__cxx1112basic_stringIcSt11char_traitsIcESaIcEEEPS5_ET1_T0_SA_S9_
	movq	%rax, %rdx
	leaq	-40(%rbp), %rax
	movq	%rdx, %rsi
	movq	%rax, %rdi
	call	_ZSt12__niter_wrapIPNSt7__cxx1112basic_stringIcSt11char_traitsIcESaIcEEEET_RKS7_S7_
	addq	$32, %rsp
	popq	%rbx
	popq	%r12
	popq	%rbp
	.cfi_def_cfa 7, 8
	ret
	.cfi_endproc
.LFE6060:
	.size	_ZSt13__copy_move_aILb0EPKNSt7__cxx1112basic_stringIcSt11char_traitsIcESaIcEEEPS5_ET1_T0_SA_S9_, .-_ZSt13__copy_move_aILb0EPKNSt7__cxx1112basic_stringIcSt11char_traitsIcESaIcEEEPS5_ET1_T0_SA_S9_
	.section	.text._ZSt9__advanceIPKNSt7__cxx1112basic_stringIcSt11char_traitsIcESaIcEEElEvRT_T0_St26random_access_iterator_tag,"axG",@progbits,_ZSt9__advanceIPKNSt7__cxx1112basic_stringIcSt11char_traitsIcESaIcEEElEvRT_T0_St26random_access_iterator_tag,comdat
	.weak	_ZSt9__advanceIPKNSt7__cxx1112basic_stringIcSt11char_traitsIcESaIcEEElEvRT_T0_St26random_access_iterator_tag
	.type	_ZSt9__advanceIPKNSt7__cxx1112basic_stringIcSt11char_traitsIcESaIcEEElEvRT_T0_St26random_access_iterator_tag, @function
_ZSt9__advanceIPKNSt7__cxx1112basic_stringIcSt11char_traitsIcESaIcEEElEvRT_T0_St26random_access_iterator_tag:
.LFB6063:
	.cfi_startproc
	endbr64
	pushq	%rbp
	.cfi_def_cfa_offset 16
	.cfi_offset 6, -16
	movq	%rsp, %rbp
	.cfi_def_cfa_register 6
	movq	%rdi, -8(%rbp)
	movq	%rsi, -16(%rbp)
	movq	-8(%rbp), %rax
	movq	(%rax), %rdx
	movq	-16(%rbp), %rax
	salq	$5, %rax
	addq	%rax, %rdx
	movq	-8(%rbp), %rax
	movq	%rdx, (%rax)
	nop
	popq	%rbp
	.cfi_def_cfa 7, 8
	ret
	.cfi_endproc
.LFE6063:
	.size	_ZSt9__advanceIPKNSt7__cxx1112basic_stringIcSt11char_traitsIcESaIcEEElEvRT_T0_St26random_access_iterator_tag, .-_ZSt9__advanceIPKNSt7__cxx1112basic_stringIcSt11char_traitsIcESaIcEEElEvRT_T0_St26random_access_iterator_tag
	.section	.text._ZSt18uninitialized_copyIPKNSt7__cxx1112basic_stringIcSt11char_traitsIcESaIcEEEPS5_ET0_T_SA_S9_,"axG",@progbits,_ZSt18uninitialized_copyIPKNSt7__cxx1112basic_stringIcSt11char_traitsIcESaIcEEEPS5_ET0_T_SA_S9_,comdat
	.weak	_ZSt18uninitialized_copyIPKNSt7__cxx1112basic_stringIcSt11char_traitsIcESaIcEEEPS5_ET0_T_SA_S9_
	.type	_ZSt18uninitialized_copyIPKNSt7__cxx1112basic_stringIcSt11char_traitsIcESaIcEEEPS5_ET0_T_SA_S9_, @function
_ZSt18uninitialized_copyIPKNSt7__cxx1112basic_stringIcSt11char_traitsIcESaIcEEEPS5_ET0_T_SA_S9_:
.LFB6064:
	.cfi_startproc
	endbr64
	pushq	%rbp
	.cfi_def_cfa_offset 16
	.cfi_offset 6, -16
	movq	%rsp, %rbp
	.cfi_def_cfa_register 6
	subq	$48, %rsp
	movq	%rdi, -24(%rbp)
	movq	%rsi, -32(%rbp)
	movq	%rdx, -40(%rbp)
	movb	$1, -1(%rbp)
	movq	-40(%rbp), %rdx
	movq	-32(%rbp), %rcx
	movq	-24(%rbp), %rax
	movq	%rcx, %rsi
	movq	%rax, %rdi
	call	_ZNSt20__uninitialized_copyILb0EE13__uninit_copyIPKNSt7__cxx1112basic_stringIcSt11char_traitsIcESaIcEEEPS7_EET0_T_SC_SB_
	leave
	.cfi_def_cfa 7, 8
	ret
	.cfi_endproc
.LFE6064:
	.size	_ZSt18uninitialized_copyIPKNSt7__cxx1112basic_stringIcSt11char_traitsIcESaIcEEEPS5_ET0_T_SA_S9_, .-_ZSt18uninitialized_copyIPKNSt7__cxx1112basic_stringIcSt11char_traitsIcESaIcEEEPS5_ET0_T_SA_S9_
	.section	.text._ZSt12__get_helperILm0EP15TrafficLightImpJSt14default_deleteIS0_EEERT0_RSt11_Tuple_implIXT_EJS4_DpT1_EE,"axG",@progbits,_ZSt12__get_helperILm0EP15TrafficLightImpJSt14default_deleteIS0_EEERT0_RSt11_Tuple_implIXT_EJS4_DpT1_EE,comdat
	.weak	_ZSt12__get_helperILm0EP15TrafficLightImpJSt14default_deleteIS0_EEERT0_RSt11_Tuple_implIXT_EJS4_DpT1_EE
	.type	_ZSt12__get_helperILm0EP15TrafficLightImpJSt14default_deleteIS0_EEERT0_RSt11_Tuple_implIXT_EJS4_DpT1_EE, @function
_ZSt12__get_helperILm0EP15TrafficLightImpJSt14default_deleteIS0_EEERT0_RSt11_Tuple_implIXT_EJS4_DpT1_EE:
.LFB6068:
	.cfi_startproc
	endbr64
	pushq	%rbp
	.cfi_def_cfa_offset 16
	.cfi_offset 6, -16
	movq	%rsp, %rbp
	.cfi_def_cfa_register 6
	subq	$16, %rsp
	movq	%rdi, -8(%rbp)
	movq	-8(%rbp), %rax
	movq	%rax, %rdi
	call	_ZNSt11_Tuple_implILm0EJP15TrafficLightImpSt14default_deleteIS0_EEE7_M_headERS4_
	leave
	.cfi_def_cfa 7, 8
	ret
	.cfi_endproc
.LFE6068:
	.size	_ZSt12__get_helperILm0EP15TrafficLightImpJSt14default_deleteIS0_EEERT0_RSt11_Tuple_implIXT_EJS4_DpT1_EE, .-_ZSt12__get_helperILm0EP15TrafficLightImpJSt14default_deleteIS0_EEERT0_RSt11_Tuple_implIXT_EJS4_DpT1_EE
	.section	.text._ZSt3getILm1EJP15TrafficLightImpSt14default_deleteIS0_EEERNSt13tuple_elementIXT_ESt5tupleIJDpT0_EEE4typeERS8_,"axG",@progbits,_ZSt3getILm1EJP15TrafficLightImpSt14default_deleteIS0_EEERNSt13tuple_elementIXT_ESt5tupleIJDpT0_EEE4typeERS8_,comdat
	.weak	_ZSt3getILm1EJP15TrafficLightImpSt14default_deleteIS0_EEERNSt13tuple_elementIXT_ESt5tupleIJDpT0_EEE4typeERS8_
	.type	_ZSt3getILm1EJP15TrafficLightImpSt14default_deleteIS0_EEERNSt13tuple_elementIXT_ESt5tupleIJDpT0_EEE4typeERS8_, @function
_ZSt3getILm1EJP15TrafficLightImpSt14default_deleteIS0_EEERNSt13tuple_elementIXT_ESt5tupleIJDpT0_EEE4typeERS8_:
.LFB6069:
	.cfi_startproc
	endbr64
	pushq	%rbp
	.cfi_def_cfa_offset 16
	.cfi_offset 6, -16
	movq	%rsp, %rbp
	.cfi_def_cfa_register 6
	subq	$16, %rsp
	movq	%rdi, -8(%rbp)
	movq	-8(%rbp), %rax
	movq	%rax, %rdi
	call	_ZSt12__get_helperILm1ESt14default_deleteI15TrafficLightImpEJEERT0_RSt11_Tuple_implIXT_EJS3_DpT1_EE
	leave
	.cfi_def_cfa 7, 8
	ret
	.cfi_endproc
.LFE6069:
	.size	_ZSt3getILm1EJP15TrafficLightImpSt14default_deleteIS0_EEERNSt13tuple_elementIXT_ESt5tupleIJDpT0_EEE4typeERS8_, .-_ZSt3getILm1EJP15TrafficLightImpSt14default_deleteIS0_EEERNSt13tuple_elementIXT_ESt5tupleIJDpT0_EEE4typeERS8_
	.section	.text._ZSt11__addressofINSt7__cxx1112basic_stringIcSt11char_traitsIcESaIcEEEEPT_RS6_,"axG",@progbits,_ZSt11__addressofINSt7__cxx1112basic_stringIcSt11char_traitsIcESaIcEEEEPT_RS6_,comdat
	.weak	_ZSt11__addressofINSt7__cxx1112basic_stringIcSt11char_traitsIcESaIcEEEEPT_RS6_
	.type	_ZSt11__addressofINSt7__cxx1112basic_stringIcSt11char_traitsIcESaIcEEEEPT_RS6_, @function
_ZSt11__addressofINSt7__cxx1112basic_stringIcSt11char_traitsIcESaIcEEEEPT_RS6_:
.LFB6162:
	.cfi_startproc
	endbr64
	pushq	%rbp
	.cfi_def_cfa_offset 16
	.cfi_offset 6, -16
	movq	%rsp, %rbp
	.cfi_def_cfa_register 6
	movq	%rdi, -8(%rbp)
	movq	-8(%rbp), %rax
	popq	%rbp
	.cfi_def_cfa 7, 8
	ret
	.cfi_endproc
.LFE6162:
	.size	_ZSt11__addressofINSt7__cxx1112basic_stringIcSt11char_traitsIcESaIcEEEEPT_RS6_, .-_ZSt11__addressofINSt7__cxx1112basic_stringIcSt11char_traitsIcESaIcEEEEPT_RS6_
	.section	.text._ZSt8_DestroyINSt7__cxx1112basic_stringIcSt11char_traitsIcESaIcEEEEvPT_,"axG",@progbits,_ZSt8_DestroyINSt7__cxx1112basic_stringIcSt11char_traitsIcESaIcEEEEvPT_,comdat
	.weak	_ZSt8_DestroyINSt7__cxx1112basic_stringIcSt11char_traitsIcESaIcEEEEvPT_
	.type	_ZSt8_DestroyINSt7__cxx1112basic_stringIcSt11char_traitsIcESaIcEEEEvPT_, @function
_ZSt8_DestroyINSt7__cxx1112basic_stringIcSt11char_traitsIcESaIcEEEEvPT_:
.LFB6163:
	.cfi_startproc
	endbr64
	pushq	%rbp
	.cfi_def_cfa_offset 16
	.cfi_offset 6, -16
	movq	%rsp, %rbp
	.cfi_def_cfa_register 6
	subq	$16, %rsp
	movq	%rdi, -8(%rbp)
	movq	-8(%rbp), %rax
	movq	%rax, %rdi
	call	_ZNSt7__cxx1112basic_stringIcSt11char_traitsIcESaIcEED1Ev@PLT
	nop
	leave
	.cfi_def_cfa 7, 8
	ret
	.cfi_endproc
.LFE6163:
	.size	_ZSt8_DestroyINSt7__cxx1112basic_stringIcSt11char_traitsIcESaIcEEEEvPT_, .-_ZSt8_DestroyINSt7__cxx1112basic_stringIcSt11char_traitsIcESaIcEEEEvPT_
	.section	.text._ZN9__gnu_cxx13new_allocatorINSt7__cxx1112basic_stringIcSt11char_traitsIcESaIcEEEEC2ERKS7_,"axG",@progbits,_ZN9__gnu_cxx13new_allocatorINSt7__cxx1112basic_stringIcSt11char_traitsIcESaIcEEEEC5ERKS7_,comdat
	.align 2
	.weak	_ZN9__gnu_cxx13new_allocatorINSt7__cxx1112basic_stringIcSt11char_traitsIcESaIcEEEEC2ERKS7_
	.type	_ZN9__gnu_cxx13new_allocatorINSt7__cxx1112basic_stringIcSt11char_traitsIcESaIcEEEEC2ERKS7_, @function
_ZN9__gnu_cxx13new_allocatorINSt7__cxx1112basic_stringIcSt11char_traitsIcESaIcEEEEC2ERKS7_:
.LFB6165:
	.cfi_startproc
	endbr64
	pushq	%rbp
	.cfi_def_cfa_offset 16
	.cfi_offset 6, -16
	movq	%rsp, %rbp
	.cfi_def_cfa_register 6
	movq	%rdi, -8(%rbp)
	movq	%rsi, -16(%rbp)
	nop
	popq	%rbp
	.cfi_def_cfa 7, 8
	ret
	.cfi_endproc
.LFE6165:
	.size	_ZN9__gnu_cxx13new_allocatorINSt7__cxx1112basic_stringIcSt11char_traitsIcESaIcEEEEC2ERKS7_, .-_ZN9__gnu_cxx13new_allocatorINSt7__cxx1112basic_stringIcSt11char_traitsIcESaIcEEEEC2ERKS7_
	.weak	_ZN9__gnu_cxx13new_allocatorINSt7__cxx1112basic_stringIcSt11char_traitsIcESaIcEEEEC1ERKS7_
	.set	_ZN9__gnu_cxx13new_allocatorINSt7__cxx1112basic_stringIcSt11char_traitsIcESaIcEEEEC1ERKS7_,_ZN9__gnu_cxx13new_allocatorINSt7__cxx1112basic_stringIcSt11char_traitsIcESaIcEEEEC2ERKS7_
	.section	.text._ZNSt16allocator_traitsISaINSt7__cxx1112basic_stringIcSt11char_traitsIcESaIcEEEEE8allocateERS6_m,"axG",@progbits,_ZNSt16allocator_traitsISaINSt7__cxx1112basic_stringIcSt11char_traitsIcESaIcEEEEE8allocateERS6_m,comdat
	.weak	_ZNSt16allocator_traitsISaINSt7__cxx1112basic_stringIcSt11char_traitsIcESaIcEEEEE8allocateERS6_m
	.type	_ZNSt16allocator_traitsISaINSt7__cxx1112basic_stringIcSt11char_traitsIcESaIcEEEEE8allocateERS6_m, @function
_ZNSt16allocator_traitsISaINSt7__cxx1112basic_stringIcSt11char_traitsIcESaIcEEEEE8allocateERS6_m:
.LFB6167:
	.cfi_startproc
	endbr64
	pushq	%rbp
	.cfi_def_cfa_offset 16
	.cfi_offset 6, -16
	movq	%rsp, %rbp
	.cfi_def_cfa_register 6
	subq	$16, %rsp
	movq	%rdi, -8(%rbp)
	movq	%rsi, -16(%rbp)
	movq	-16(%rbp), %rcx
	movq	-8(%rbp), %rax
	movl	$0, %edx
	movq	%rcx, %rsi
	movq	%rax, %rdi
	call	_ZN9__gnu_cxx13new_allocatorINSt7__cxx1112basic_stringIcSt11char_traitsIcESaIcEEEE8allocateEmPKv
	leave
	.cfi_def_cfa 7, 8
	ret
	.cfi_endproc
.LFE6167:
	.size	_ZNSt16allocator_traitsISaINSt7__cxx1112basic_stringIcSt11char_traitsIcESaIcEEEEE8allocateERS6_m, .-_ZNSt16allocator_traitsISaINSt7__cxx1112basic_stringIcSt11char_traitsIcESaIcEEEEE8allocateERS6_m
	.section	.text._ZSt10_ConstructINSt7__cxx1112basic_stringIcSt11char_traitsIcESaIcEEEJRKS5_EEvPT_DpOT0_,"axG",@progbits,_ZSt10_ConstructINSt7__cxx1112basic_stringIcSt11char_traitsIcESaIcEEEJRKS5_EEvPT_DpOT0_,comdat
	.weak	_ZSt10_ConstructINSt7__cxx1112basic_stringIcSt11char_traitsIcESaIcEEEJRKS5_EEvPT_DpOT0_
	.type	_ZSt10_ConstructINSt7__cxx1112basic_stringIcSt11char_traitsIcESaIcEEEJRKS5_EEvPT_DpOT0_, @function
_ZSt10_ConstructINSt7__cxx1112basic_stringIcSt11char_traitsIcESaIcEEEJRKS5_EEvPT_DpOT0_:
.LFB6168:
	.cfi_startproc
	.cfi_personality 0x9b,DW.ref.__gxx_personality_v0
	.cfi_lsda 0x1b,.LLSDA6168
	endbr64
	pushq	%rbp
	.cfi_def_cfa_offset 16
	.cfi_offset 6, -16
	movq	%rsp, %rbp
	.cfi_def_cfa_register 6
	pushq	%r13
	pushq	%r12
	pushq	%rbx
	subq	$24, %rsp
	.cfi_offset 13, -24
	.cfi_offset 12, -32
	.cfi_offset 3, -40
	movq	%rdi, -40(%rbp)
	movq	%rsi, -48(%rbp)
	movq	-48(%rbp), %rax
	movq	%rax, %rdi
	call	_ZSt7forwardIRKNSt7__cxx1112basic_stringIcSt11char_traitsIcESaIcEEEEOT_RNSt16remove_referenceIS8_E4typeE
	movq	%rax, %r13
	movq	-40(%rbp), %rbx
	movq	%rbx, %rsi
	movl	$32, %edi
	call	_ZnwmPv
	movq	%rax, %r12
	movq	%r13, %rsi
	movq	%r12, %rdi
.LEHB48:
	call	_ZNSt7__cxx1112basic_stringIcSt11char_traitsIcESaIcEEC1ERKS4_@PLT
.LEHE48:
	jmp	.L279
.L278:
	endbr64
	movq	%rax, %r13
	movq	%rbx, %rsi
	movq	%r12, %rdi
	call	_ZdlPvS_
	movq	%r13, %rax
	movq	%rax, %rdi
.LEHB49:
	call	_Unwind_Resume@PLT
.LEHE49:
.L279:
	addq	$24, %rsp
	popq	%rbx
	popq	%r12
	popq	%r13
	popq	%rbp
	.cfi_def_cfa 7, 8
	ret
	.cfi_endproc
.LFE6168:
	.section	.gcc_except_table
.LLSDA6168:
	.byte	0xff
	.byte	0xff
	.byte	0x1
	.uleb128 .LLSDACSE6168-.LLSDACSB6168
.LLSDACSB6168:
	.uleb128 .LEHB48-.LFB6168
	.uleb128 .LEHE48-.LEHB48
	.uleb128 .L278-.LFB6168
	.uleb128 0
	.uleb128 .LEHB49-.LFB6168
	.uleb128 .LEHE49-.LEHB49
	.uleb128 0
	.uleb128 0
.LLSDACSE6168:
	.section	.text._ZSt10_ConstructINSt7__cxx1112basic_stringIcSt11char_traitsIcESaIcEEEJRKS5_EEvPT_DpOT0_,"axG",@progbits,_ZSt10_ConstructINSt7__cxx1112basic_stringIcSt11char_traitsIcESaIcEEEJRKS5_EEvPT_DpOT0_,comdat
	.size	_ZSt10_ConstructINSt7__cxx1112basic_stringIcSt11char_traitsIcESaIcEEEJRKS5_EEvPT_DpOT0_, .-_ZSt10_ConstructINSt7__cxx1112basic_stringIcSt11char_traitsIcESaIcEEEJRKS5_EEvPT_DpOT0_
	.section	.text._ZSt11__addressofISt10unique_ptrI15TrafficLightImpSt14default_deleteIS1_EEEPT_RS5_,"axG",@progbits,_ZSt11__addressofISt10unique_ptrI15TrafficLightImpSt14default_deleteIS1_EEEPT_RS5_,comdat
	.weak	_ZSt11__addressofISt10unique_ptrI15TrafficLightImpSt14default_deleteIS1_EEEPT_RS5_
	.type	_ZSt11__addressofISt10unique_ptrI15TrafficLightImpSt14default_deleteIS1_EEEPT_RS5_, @function
_ZSt11__addressofISt10unique_ptrI15TrafficLightImpSt14default_deleteIS1_EEEPT_RS5_:
.LFB6228:
	.cfi_startproc
	endbr64
	pushq	%rbp
	.cfi_def_cfa_offset 16
	.cfi_offset 6, -16
	movq	%rsp, %rbp
	.cfi_def_cfa_register 6
	movq	%rdi, -8(%rbp)
	movq	-8(%rbp), %rax
	popq	%rbp
	.cfi_def_cfa 7, 8
	ret
	.cfi_endproc
.LFE6228:
	.size	_ZSt11__addressofISt10unique_ptrI15TrafficLightImpSt14default_deleteIS1_EEEPT_RS5_, .-_ZSt11__addressofISt10unique_ptrI15TrafficLightImpSt14default_deleteIS1_EEEPT_RS5_
	.section	.text._ZSt8_DestroyISt10unique_ptrI15TrafficLightImpSt14default_deleteIS1_EEEvPT_,"axG",@progbits,_ZSt8_DestroyISt10unique_ptrI15TrafficLightImpSt14default_deleteIS1_EEEvPT_,comdat
	.weak	_ZSt8_DestroyISt10unique_ptrI15TrafficLightImpSt14default_deleteIS1_EEEvPT_
	.type	_ZSt8_DestroyISt10unique_ptrI15TrafficLightImpSt14default_deleteIS1_EEEvPT_, @function
_ZSt8_DestroyISt10unique_ptrI15TrafficLightImpSt14default_deleteIS1_EEEvPT_:
.LFB6229:
	.cfi_startproc
	endbr64
	pushq	%rbp
	.cfi_def_cfa_offset 16
	.cfi_offset 6, -16
	movq	%rsp, %rbp
	.cfi_def_cfa_register 6
	subq	$16, %rsp
	movq	%rdi, -8(%rbp)
	movq	-8(%rbp), %rax
	movq	%rax, %rdi
	call	_ZNSt10unique_ptrI15TrafficLightImpSt14default_deleteIS0_EED1Ev
	nop
	leave
	.cfi_def_cfa 7, 8
	ret
	.cfi_endproc
.LFE6229:
	.size	_ZSt8_DestroyISt10unique_ptrI15TrafficLightImpSt14default_deleteIS1_EEEvPT_, .-_ZSt8_DestroyISt10unique_ptrI15TrafficLightImpSt14default_deleteIS1_EEEvPT_
	.section	.text._ZNSt16allocator_traitsISaINSt7__cxx1112basic_stringIcSt11char_traitsIcESaIcEEEEE8max_sizeERKS6_,"axG",@progbits,_ZNSt16allocator_traitsISaINSt7__cxx1112basic_stringIcSt11char_traitsIcESaIcEEEEE8max_sizeERKS6_,comdat
	.weak	_ZNSt16allocator_traitsISaINSt7__cxx1112basic_stringIcSt11char_traitsIcESaIcEEEEE8max_sizeERKS6_
	.type	_ZNSt16allocator_traitsISaINSt7__cxx1112basic_stringIcSt11char_traitsIcESaIcEEEEE8max_sizeERKS6_, @function
_ZNSt16allocator_traitsISaINSt7__cxx1112basic_stringIcSt11char_traitsIcESaIcEEEEE8max_sizeERKS6_:
.LFB6230:
	.cfi_startproc
	endbr64
	pushq	%rbp
	.cfi_def_cfa_offset 16
	.cfi_offset 6, -16
	movq	%rsp, %rbp
	.cfi_def_cfa_register 6
	subq	$16, %rsp
	movq	%rdi, -8(%rbp)
	movq	-8(%rbp), %rax
	movq	%rax, %rdi
	call	_ZNK9__gnu_cxx13new_allocatorINSt7__cxx1112basic_stringIcSt11char_traitsIcESaIcEEEE8max_sizeEv
	leave
	.cfi_def_cfa 7, 8
	ret
	.cfi_endproc
.LFE6230:
	.size	_ZNSt16allocator_traitsISaINSt7__cxx1112basic_stringIcSt11char_traitsIcESaIcEEEEE8max_sizeERKS6_, .-_ZNSt16allocator_traitsISaINSt7__cxx1112basic_stringIcSt11char_traitsIcESaIcEEEEE8max_sizeERKS6_
	.section	.text._ZSt12__niter_baseIPKNSt7__cxx1112basic_stringIcSt11char_traitsIcESaIcEEEET_S8_,"axG",@progbits,_ZSt12__niter_baseIPKNSt7__cxx1112basic_stringIcSt11char_traitsIcESaIcEEEET_S8_,comdat
	.weak	_ZSt12__niter_baseIPKNSt7__cxx1112basic_stringIcSt11char_traitsIcESaIcEEEET_S8_
	.type	_ZSt12__niter_baseIPKNSt7__cxx1112basic_stringIcSt11char_traitsIcESaIcEEEET_S8_, @function
_ZSt12__niter_baseIPKNSt7__cxx1112basic_stringIcSt11char_traitsIcESaIcEEEET_S8_:
.LFB6231:
	.cfi_startproc
	endbr64
	pushq	%rbp
	.cfi_def_cfa_offset 16
	.cfi_offset 6, -16
	movq	%rsp, %rbp
	.cfi_def_cfa_register 6
	movq	%rdi, -8(%rbp)
	movq	-8(%rbp), %rax
	popq	%rbp
	.cfi_def_cfa 7, 8
	ret
	.cfi_endproc
.LFE6231:
	.size	_ZSt12__niter_baseIPKNSt7__cxx1112basic_stringIcSt11char_traitsIcESaIcEEEET_S8_, .-_ZSt12__niter_baseIPKNSt7__cxx1112basic_stringIcSt11char_traitsIcESaIcEEEET_S8_
	.section	.text._ZSt12__niter_baseIPNSt7__cxx1112basic_stringIcSt11char_traitsIcESaIcEEEET_S7_,"axG",@progbits,_ZSt12__niter_baseIPNSt7__cxx1112basic_stringIcSt11char_traitsIcESaIcEEEET_S7_,comdat
	.weak	_ZSt12__niter_baseIPNSt7__cxx1112basic_stringIcSt11char_traitsIcESaIcEEEET_S7_
	.type	_ZSt12__niter_baseIPNSt7__cxx1112basic_stringIcSt11char_traitsIcESaIcEEEET_S7_, @function
_ZSt12__niter_baseIPNSt7__cxx1112basic_stringIcSt11char_traitsIcESaIcEEEET_S7_:
.LFB6232:
	.cfi_startproc
	endbr64
	pushq	%rbp
	.cfi_def_cfa_offset 16
	.cfi_offset 6, -16
	movq	%rsp, %rbp
	.cfi_def_cfa_register 6
	movq	%rdi, -8(%rbp)
	movq	-8(%rbp), %rax
	popq	%rbp
	.cfi_def_cfa 7, 8
	ret
	.cfi_endproc
.LFE6232:
	.size	_ZSt12__niter_baseIPNSt7__cxx1112basic_stringIcSt11char_traitsIcESaIcEEEET_S7_, .-_ZSt12__niter_baseIPNSt7__cxx1112basic_stringIcSt11char_traitsIcESaIcEEEET_S7_
	.section	.text._ZSt14__copy_move_a1ILb0EPKNSt7__cxx1112basic_stringIcSt11char_traitsIcESaIcEEEPS5_ET1_T0_SA_S9_,"axG",@progbits,_ZSt14__copy_move_a1ILb0EPKNSt7__cxx1112basic_stringIcSt11char_traitsIcESaIcEEEPS5_ET1_T0_SA_S9_,comdat
	.weak	_ZSt14__copy_move_a1ILb0EPKNSt7__cxx1112basic_stringIcSt11char_traitsIcESaIcEEEPS5_ET1_T0_SA_S9_
	.type	_ZSt14__copy_move_a1ILb0EPKNSt7__cxx1112basic_stringIcSt11char_traitsIcESaIcEEEPS5_ET1_T0_SA_S9_, @function
_ZSt14__copy_move_a1ILb0EPKNSt7__cxx1112basic_stringIcSt11char_traitsIcESaIcEEEPS5_ET1_T0_SA_S9_:
.LFB6233:
	.cfi_startproc
	endbr64
	pushq	%rbp
	.cfi_def_cfa_offset 16
	.cfi_offset 6, -16
	movq	%rsp, %rbp
	.cfi_def_cfa_register 6
	subq	$32, %rsp
	movq	%rdi, -8(%rbp)
	movq	%rsi, -16(%rbp)
	movq	%rdx, -24(%rbp)
	movq	-24(%rbp), %rdx
	movq	-16(%rbp), %rcx
	movq	-8(%rbp), %rax
	movq	%rcx, %rsi
	movq	%rax, %rdi
	call	_ZSt14__copy_move_a2ILb0EPKNSt7__cxx1112basic_stringIcSt11char_traitsIcESaIcEEEPS5_ET1_T0_SA_S9_
	leave
	.cfi_def_cfa 7, 8
	ret
	.cfi_endproc
.LFE6233:
	.size	_ZSt14__copy_move_a1ILb0EPKNSt7__cxx1112basic_stringIcSt11char_traitsIcESaIcEEEPS5_ET1_T0_SA_S9_, .-_ZSt14__copy_move_a1ILb0EPKNSt7__cxx1112basic_stringIcSt11char_traitsIcESaIcEEEPS5_ET1_T0_SA_S9_
	.section	.text._ZSt12__niter_wrapIPNSt7__cxx1112basic_stringIcSt11char_traitsIcESaIcEEEET_RKS7_S7_,"axG",@progbits,_ZSt12__niter_wrapIPNSt7__cxx1112basic_stringIcSt11char_traitsIcESaIcEEEET_RKS7_S7_,comdat
	.weak	_ZSt12__niter_wrapIPNSt7__cxx1112basic_stringIcSt11char_traitsIcESaIcEEEET_RKS7_S7_
	.type	_ZSt12__niter_wrapIPNSt7__cxx1112basic_stringIcSt11char_traitsIcESaIcEEEET_RKS7_S7_, @function
_ZSt12__niter_wrapIPNSt7__cxx1112basic_stringIcSt11char_traitsIcESaIcEEEET_RKS7_S7_:
.LFB6234:
	.cfi_startproc
	endbr64
	pushq	%rbp
	.cfi_def_cfa_offset 16
	.cfi_offset 6, -16
	movq	%rsp, %rbp
	.cfi_def_cfa_register 6
	movq	%rdi, -8(%rbp)
	movq	%rsi, -16(%rbp)
	movq	-16(%rbp), %rax
	popq	%rbp
	.cfi_def_cfa 7, 8
	ret
	.cfi_endproc
.LFE6234:
	.size	_ZSt12__niter_wrapIPNSt7__cxx1112basic_stringIcSt11char_traitsIcESaIcEEEET_RKS7_S7_, .-_ZSt12__niter_wrapIPNSt7__cxx1112basic_stringIcSt11char_traitsIcESaIcEEEET_RKS7_S7_
	.section	.text._ZNSt20__uninitialized_copyILb0EE13__uninit_copyIPKNSt7__cxx1112basic_stringIcSt11char_traitsIcESaIcEEEPS7_EET0_T_SC_SB_,"axG",@progbits,_ZNSt20__uninitialized_copyILb0EE13__uninit_copyIPKNSt7__cxx1112basic_stringIcSt11char_traitsIcESaIcEEEPS7_EET0_T_SC_SB_,comdat
	.weak	_ZNSt20__uninitialized_copyILb0EE13__uninit_copyIPKNSt7__cxx1112basic_stringIcSt11char_traitsIcESaIcEEEPS7_EET0_T_SC_SB_
	.type	_ZNSt20__uninitialized_copyILb0EE13__uninit_copyIPKNSt7__cxx1112basic_stringIcSt11char_traitsIcESaIcEEEPS7_EET0_T_SC_SB_, @function
_ZNSt20__uninitialized_copyILb0EE13__uninit_copyIPKNSt7__cxx1112basic_stringIcSt11char_traitsIcESaIcEEEPS7_EET0_T_SC_SB_:
.LFB6235:
	.cfi_startproc
	.cfi_personality 0x9b,DW.ref.__gxx_personality_v0
	.cfi_lsda 0x1b,.LLSDA6235
	endbr64
	pushq	%rbp
	.cfi_def_cfa_offset 16
	.cfi_offset 6, -16
	movq	%rsp, %rbp
	.cfi_def_cfa_register 6
	pushq	%rbx
	subq	$56, %rsp
	.cfi_offset 3, -24
	movq	%rdi, -40(%rbp)
	movq	%rsi, -48(%rbp)
	movq	%rdx, -56(%rbp)
	movq	-56(%rbp), %rax
	movq	%rax, -24(%rbp)
	jmp	.L294
.L295:
	movq	-24(%rbp), %rax
	movq	%rax, %rdi
	call	_ZSt11__addressofINSt7__cxx1112basic_stringIcSt11char_traitsIcESaIcEEEEPT_RS6_
	movq	%rax, %rdx
	movq	-40(%rbp), %rax
	movq	%rax, %rsi
	movq	%rdx, %rdi
.LEHB50:
	call	_ZSt10_ConstructINSt7__cxx1112basic_stringIcSt11char_traitsIcESaIcEEEJRKS5_EEvPT_DpOT0_
.LEHE50:
	addq	$32, -40(%rbp)
	addq	$32, -24(%rbp)
.L294:
	movq	-40(%rbp), %rax
	cmpq	-48(%rbp), %rax
	jne	.L295
	movq	-24(%rbp), %rax
	jmp	.L301
.L299:
	endbr64
	movq	%rax, %rdi
	call	__cxa_begin_catch@PLT
	movq	-24(%rbp), %rdx
	movq	-56(%rbp), %rax
	movq	%rdx, %rsi
	movq	%rax, %rdi
.LEHB51:
	call	_ZSt8_DestroyIPNSt7__cxx1112basic_stringIcSt11char_traitsIcESaIcEEEEvT_S7_
	call	__cxa_rethrow@PLT
.LEHE51:
.L300:
	endbr64
	movq	%rax, %rbx
	call	__cxa_end_catch@PLT
	movq	%rbx, %rax
	movq	%rax, %rdi
.LEHB52:
	call	_Unwind_Resume@PLT
.LEHE52:
.L301:
	movq	-8(%rbp), %rbx
	leave
	.cfi_def_cfa 7, 8
	ret
	.cfi_endproc
.LFE6235:
	.section	.gcc_except_table
	.align 4
.LLSDA6235:
	.byte	0xff
	.byte	0x9b
	.uleb128 .LLSDATT6235-.LLSDATTD6235
.LLSDATTD6235:
	.byte	0x1
	.uleb128 .LLSDACSE6235-.LLSDACSB6235
.LLSDACSB6235:
	.uleb128 .LEHB50-.LFB6235
	.uleb128 .LEHE50-.LEHB50
	.uleb128 .L299-.LFB6235
	.uleb128 0x1
	.uleb128 .LEHB51-.LFB6235
	.uleb128 .LEHE51-.LEHB51
	.uleb128 .L300-.LFB6235
	.uleb128 0
	.uleb128 .LEHB52-.LFB6235
	.uleb128 .LEHE52-.LEHB52
	.uleb128 0
	.uleb128 0
.LLSDACSE6235:
	.byte	0x1
	.byte	0
	.align 4
	.long	0

.LLSDATT6235:
	.section	.text._ZNSt20__uninitialized_copyILb0EE13__uninit_copyIPKNSt7__cxx1112basic_stringIcSt11char_traitsIcESaIcEEEPS7_EET0_T_SC_SB_,"axG",@progbits,_ZNSt20__uninitialized_copyILb0EE13__uninit_copyIPKNSt7__cxx1112basic_stringIcSt11char_traitsIcESaIcEEEPS7_EET0_T_SC_SB_,comdat
	.size	_ZNSt20__uninitialized_copyILb0EE13__uninit_copyIPKNSt7__cxx1112basic_stringIcSt11char_traitsIcESaIcEEEPS7_EET0_T_SC_SB_, .-_ZNSt20__uninitialized_copyILb0EE13__uninit_copyIPKNSt7__cxx1112basic_stringIcSt11char_traitsIcESaIcEEEPS7_EET0_T_SC_SB_
	.section	.text._ZNSt11_Tuple_implILm0EJP15TrafficLightImpSt14default_deleteIS0_EEE7_M_headERS4_,"axG",@progbits,_ZNSt11_Tuple_implILm0EJP15TrafficLightImpSt14default_deleteIS0_EEE7_M_headERS4_,comdat
	.weak	_ZNSt11_Tuple_implILm0EJP15TrafficLightImpSt14default_deleteIS0_EEE7_M_headERS4_
	.type	_ZNSt11_Tuple_implILm0EJP15TrafficLightImpSt14default_deleteIS0_EEE7_M_headERS4_, @function
_ZNSt11_Tuple_implILm0EJP15TrafficLightImpSt14default_deleteIS0_EEE7_M_headERS4_:
.LFB6239:
	.cfi_startproc
	endbr64
	pushq	%rbp
	.cfi_def_cfa_offset 16
	.cfi_offset 6, -16
	movq	%rsp, %rbp
	.cfi_def_cfa_register 6
	subq	$16, %rsp
	movq	%rdi, -8(%rbp)
	movq	-8(%rbp), %rax
	movq	%rax, %rdi
	call	_ZNSt10_Head_baseILm0EP15TrafficLightImpLb0EE7_M_headERS2_
	leave
	.cfi_def_cfa 7, 8
	ret
	.cfi_endproc
.LFE6239:
	.size	_ZNSt11_Tuple_implILm0EJP15TrafficLightImpSt14default_deleteIS0_EEE7_M_headERS4_, .-_ZNSt11_Tuple_implILm0EJP15TrafficLightImpSt14default_deleteIS0_EEE7_M_headERS4_
